

Microchip MPLAB XC8 Assembler V3.10 build 20250813170317 
                                                                                               Thu Oct 30 20:30:57 2025

Microchip MPLAB XC8 C Compiler v3.10 (Free license) build 20250813170317 Og1 
     1                           	processor	16F877A
     2                           	pagewidth 120
     3                           	opt	flic
     4                           	psect	strings,global,class=STRING,space=0,delta=2,noexec
     5                           	psect	cinit,global,class=CODE,space=0,merge=1,delta=2
     6                           	psect	cstackBANK1,global,class=BANK1,space=1,delta=1,noexec
     7                           	psect	cstackCOMMON,global,class=COMMON,space=1,delta=1,noexec
     8                           	psect	cstackBANK0,global,class=BANK0,space=1,delta=1,noexec
     9                           	psect	maintext,global,class=CODE,space=0,split=1,delta=2
    10                           	psect	text1,local,class=CODE,space=0,merge=1,delta=2
    11                           	psect	text2,local,class=CODE,space=0,merge=1,delta=2
    12                           	psect	text3,local,class=CODE,space=0,merge=1,delta=2,group=1
    13                           	psect	text4,local,class=CODE,space=0,merge=1,delta=2,group=1
    14                           	psect	text5,local,class=CODE,space=0,merge=1,delta=2,group=1
    15                           	psect	text6,local,class=CODE,space=0,merge=1,delta=2,group=1
    16                           	psect	text7,local,class=CODE,space=0,merge=1,delta=2,group=1
    17                           	psect	text8,local,class=CODE,space=0,merge=1,delta=2,group=1
    18                           	psect	text9,local,class=CODE,space=0,merge=1,delta=2,group=1
    19                           	psect	text10,local,class=CODE,space=0,merge=1,delta=2,group=1
    20                           	psect	text11,local,class=CODE,space=0,merge=1,delta=2,group=1
    21                           	psect	text12,local,class=CODE,space=0,merge=1,delta=2
    22                           	psect	text13,local,class=CODE,space=0,merge=1,delta=2
    23                           	psect	text14,local,class=CODE,space=0,merge=1,delta=2
    24                           	psect	text15,local,class=CODE,space=0,merge=1,delta=2
    25                           	psect	text16,local,class=CODE,space=0,merge=1,delta=2
    26                           	psect	config,global,abs,ovrld,class=CONFIG,space=4,delta=2,noexec
    27                           	dabs	1,0x7E,2
    28     0000                     
    29                           ; Generated 12/10/2023 GMT
    30                           ; 
    31                           ; Copyright © 2023, Microchip Technology Inc. and its subsidiaries ("Microchip")
    32                           ; All rights reserved.
    33                           ; 
    34                           ; This software is developed by Microchip Technology Inc. and its subsidiaries ("Microch
      +                          ip").
    35                           ; 
    36                           ; Redistribution and use in source and binary forms, with or without modification, are
    37                           ; permitted provided that the following conditions are met:
    38                           ; 
    39                           ;     1. Redistributions of source code must retain the above copyright notice, this lis
      +                          t of
    40                           ;        conditions and the following disclaimer.
    41                           ; 
    42                           ;     2. Redistributions in binary form must reproduce the above copyright notice, this 
      +                          list
    43                           ;        of conditions and the following disclaimer in the documentation and/or other
    44                           ;        materials provided with the distribution. Publication is not required when
    45                           ;        this file is used in an embedded application.
    46                           ; 
    47                           ;     3. Microchip's name may not be used to endorse or promote products derived from th
      +                          is
    48                           ;        software without specific prior written permission.
    49                           ; 
    50                           ; THIS SOFTWARE IS PROVIDED BY MICROCHIP "AS IS" AND ANY EXPRESS OR IMPLIED WARRANTIES,
    51                           ; INCLUDING, BUT NOT LIMITED TO, THE IMPLIED WARRANTIES OF MERCHANTABILITY AND FITNESS F
      +                          OR
    52                           ; PURPOSE ARE DISCLAIMED.  IN NO EVENT SHALL MICROCHIP BE LIABLE FOR ANY DIRECT, INDIREC
      +                          T,
    53                           ; INCIDENTAL, SPECIAL, EXEMPLARY, OR CONSEQUENTIAL DAMAGES (INCLUDING BUT NOT LIMITED TO
    54                           ; PROCUREMENT OF SUBSTITUTE GOODS OR SERVICES; LOSS OF USE, DATA OR PROFITS; OR BUSINESS
    55                           ; INTERRUPTION) HOWSOEVER CAUSED AND ON ANY THEORY OF LIABILITY, WHETHER IN CONTRACT, ST
      +                          RICT
    56                           ; LIABILITY, OR TORT (INCLUDING NEGLIGENCE OR OTHERWISE) ARISING IN ANY WAY OUT OF THE U
      +                          SE OF
    57                           ; THIS SOFTWARE, EVEN IF ADVISED OF THE POSSIBILITY OF SUCH DAMAGE.
    58                           ; 
    59                           ; 
    60                           ; Code-generator required, PIC16F877A Definitions
    61                           ; 
    62                           ; SFR Addresses
    63     0004                     fsr             equ	4
    64     0004                     fsr0            equ	4
    65     0000                     indf            equ	0
    66     0000                     indf0           equ	0
    67     0002                     pc              equ	2
    68     0002                     pcl             equ	2
    69     000A                     pclath          equ	10
    70     0003                     status          equ	3
    71     0000                     INDF            equ	0	;# 
    72     0001                     TMR0            equ	1	;# 
    73     0002                     PCL             equ	2	;# 
    74     0003                     STATUS          equ	3	;# 
    75     0004                     FSR             equ	4	;# 
    76     0005                     PORTA           equ	5	;# 
    77     0006                     PORTB           equ	6	;# 
    78     0007                     PORTC           equ	7	;# 
    79     0008                     PORTD           equ	8	;# 
    80     0009                     PORTE           equ	9	;# 
    81     000A                     PCLATH          equ	10	;# 
    82     000B                     INTCON          equ	11	;# 
    83     000C                     PIR1            equ	12	;# 
    84     000D                     PIR2            equ	13	;# 
    85     000E                     TMR1            equ	14	;# 
    86     000E                     TMR1L           equ	14	;# 
    87     000F                     TMR1H           equ	15	;# 
    88     0010                     T1CON           equ	16	;# 
    89     0011                     TMR2            equ	17	;# 
    90     0012                     T2CON           equ	18	;# 
    91     0013                     SSPBUF          equ	19	;# 
    92     0014                     SSPCON          equ	20	;# 
    93     0015                     CCPR1           equ	21	;# 
    94     0015                     CCPR1L          equ	21	;# 
    95     0016                     CCPR1H          equ	22	;# 
    96     0017                     CCP1CON         equ	23	;# 
    97     0018                     RCSTA           equ	24	;# 
    98     0019                     TXREG           equ	25	;# 
    99     001A                     RCREG           equ	26	;# 
   100     001B                     CCPR2           equ	27	;# 
   101     001B                     CCPR2L          equ	27	;# 
   102     001C                     CCPR2H          equ	28	;# 
   103     001D                     CCP2CON         equ	29	;# 
   104     001E                     ADRESH          equ	30	;# 
   105     001F                     ADCON0          equ	31	;# 
   106     0081                     OPTION_REG      equ	129	;# 
   107     0085                     TRISA           equ	133	;# 
   108     0086                     TRISB           equ	134	;# 
   109     0087                     TRISC           equ	135	;# 
   110     0088                     TRISD           equ	136	;# 
   111     0089                     TRISE           equ	137	;# 
   112     008C                     PIE1            equ	140	;# 
   113     008D                     PIE2            equ	141	;# 
   114     008E                     PCON            equ	142	;# 
   115     0091                     SSPCON2         equ	145	;# 
   116     0092                     PR2             equ	146	;# 
   117     0093                     SSPADD          equ	147	;# 
   118     0094                     SSPSTAT         equ	148	;# 
   119     0098                     TXSTA           equ	152	;# 
   120     0099                     SPBRG           equ	153	;# 
   121     009C                     CMCON           equ	156	;# 
   122     009D                     CVRCON          equ	157	;# 
   123     009E                     ADRESL          equ	158	;# 
   124     009F                     ADCON1          equ	159	;# 
   125     010C                     EEDATA          equ	268	;# 
   126     010D                     EEADR           equ	269	;# 
   127     010E                     EEDATH          equ	270	;# 
   128     010F                     EEADRH          equ	271	;# 
   129     018C                     EECON1          equ	396	;# 
   130     018D                     EECON2          equ	397	;# 
   131     0000                     INDF            equ	0	;# 
   132     0001                     TMR0            equ	1	;# 
   133     0002                     PCL             equ	2	;# 
   134     0003                     STATUS          equ	3	;# 
   135     0004                     FSR             equ	4	;# 
   136     0005                     PORTA           equ	5	;# 
   137     0006                     PORTB           equ	6	;# 
   138     0007                     PORTC           equ	7	;# 
   139     0008                     PORTD           equ	8	;# 
   140     0009                     PORTE           equ	9	;# 
   141     000A                     PCLATH          equ	10	;# 
   142     000B                     INTCON          equ	11	;# 
   143     000C                     PIR1            equ	12	;# 
   144     000D                     PIR2            equ	13	;# 
   145     000E                     TMR1            equ	14	;# 
   146     000E                     TMR1L           equ	14	;# 
   147     000F                     TMR1H           equ	15	;# 
   148     0010                     T1CON           equ	16	;# 
   149     0011                     TMR2            equ	17	;# 
   150     0012                     T2CON           equ	18	;# 
   151     0013                     SSPBUF          equ	19	;# 
   152     0014                     SSPCON          equ	20	;# 
   153     0015                     CCPR1           equ	21	;# 
   154     0015                     CCPR1L          equ	21	;# 
   155     0016                     CCPR1H          equ	22	;# 
   156     0017                     CCP1CON         equ	23	;# 
   157     0018                     RCSTA           equ	24	;# 
   158     0019                     TXREG           equ	25	;# 
   159     001A                     RCREG           equ	26	;# 
   160     001B                     CCPR2           equ	27	;# 
   161     001B                     CCPR2L          equ	27	;# 
   162     001C                     CCPR2H          equ	28	;# 
   163     001D                     CCP2CON         equ	29	;# 
   164     001E                     ADRESH          equ	30	;# 
   165     001F                     ADCON0          equ	31	;# 
   166     0081                     OPTION_REG      equ	129	;# 
   167     0085                     TRISA           equ	133	;# 
   168     0086                     TRISB           equ	134	;# 
   169     0087                     TRISC           equ	135	;# 
   170     0088                     TRISD           equ	136	;# 
   171     0089                     TRISE           equ	137	;# 
   172     008C                     PIE1            equ	140	;# 
   173     008D                     PIE2            equ	141	;# 
   174     008E                     PCON            equ	142	;# 
   175     0091                     SSPCON2         equ	145	;# 
   176     0092                     PR2             equ	146	;# 
   177     0093                     SSPADD          equ	147	;# 
   178     0094                     SSPSTAT         equ	148	;# 
   179     0098                     TXSTA           equ	152	;# 
   180     0099                     SPBRG           equ	153	;# 
   181     009C                     CMCON           equ	156	;# 
   182     009D                     CVRCON          equ	157	;# 
   183     009E                     ADRESL          equ	158	;# 
   184     009F                     ADCON1          equ	159	;# 
   185     010C                     EEDATA          equ	268	;# 
   186     010D                     EEADR           equ	269	;# 
   187     010E                     EEDATH          equ	270	;# 
   188     010F                     EEADRH          equ	271	;# 
   189     018C                     EECON1          equ	396	;# 
   190     018D                     EECON2          equ	397	;# 
   191     001E                     _ADRESH         set	30
   192     001F                     _ADCON0         set	31
   193     0019                     _TXREG          set	25
   194     0018                     _RCSTA          set	24
   195     00FA                     _GO_nDONE       set	250
   196     0064                     _TXIF           set	100
   197     0085                     _TRISA          set	133
   198     009E                     _ADRESL         set	158
   199     009F                     _ADCON1         set	159
   200     0098                     _TXSTA          set	152
   201     0099                     _SPBRG          set	153
   202     043F                     _TRISC7         set	1087
   203     043E                     _TRISC6         set	1086
   204                           
   205                           	psect	strings
   206     0800                     __pstrings:
   207     0800                     stringtab:
   208     0800                     __stringtab:
   209                           
   210                           ;	String table - string pointers are 1 byte each
   211     0800  1BFF               	btfsc	btemp+1,7
   212     0801  280A               	ljmp	stringcode
   213     0802  1383               	bcf	3,7
   214     0803  187F               	btfsc	btemp+1,0
   215     0804  1783               	bsf	3,7
   216     0805  0800               	movf	0,w
   217     0806  0A84               	incf	4,f
   218     0807  1903               	skipnz
   219     0808  0AFF               	incf	btemp+1,f
   220     0809  0008               	return
   221     080A                     stringcode:
   222     080A                     stringdir:
   223     080A  3008               	movlw	high stringdir
   224     080B  008A               	movwf	10
   225     080C  0804               	movf	4,w
   226     080D  0A84               	incf	4,f
   227     080E  0782               	addwf	2,f
   228     080F                     __stringbase:
   229     080F  3400               	retlw	0
   230     0810                     __end_of__stringtab:
   231     0810                     STR_1:
   232     0810  3455               	retlw	85	;'U'
   233     0811  3441               	retlw	65	;'A'
   234     0812  3452               	retlw	82	;'R'
   235     0813  3454               	retlw	84	;'T'
   236     0814  3420               	retlw	32	;' '
   237     0815  3454               	retlw	84	;'T'
   238     0816  3465               	retlw	101	;'e'
   239     0817  3473               	retlw	115	;'s'
   240     0818  3474               	retlw	116	;'t'
   241     0819  3420               	retlw	32	;' '
   242     081A  3453               	retlw	83	;'S'
   243     081B  3474               	retlw	116	;'t'
   244     081C  3461               	retlw	97	;'a'
   245     081D  3472               	retlw	114	;'r'
   246     081E  3474               	retlw	116	;'t'
   247     081F  340D               	retlw	13
   248     0820  340A               	retlw	10
   249     0821  3400               	retlw	0
   250     0822                     STR_3:
   251     0822  340D               	retlw	13
   252     0823  340A               	retlw	10
   253     0824  3454               	retlw	84	;'T'
   254     0825  3465               	retlw	101	;'e'
   255     0826  346D               	retlw	109	;'m'
   256     0827  3470               	retlw	112	;'p'
   257     0828  3420               	retlw	32	;' '
   258     0829  343D               	retlw	61	;'='
   259     082A  3420               	retlw	32	;' '
   260     082B  3400               	retlw	0
   261     082C                     STR_4:
   262     082C  3420               	retlw	32	;' '
   263     082D  3443               	retlw	67	;'C'
   264     082E  340D               	retlw	13
   265     082F  340A               	retlw	10
   266     0830  340D               	retlw	13
   267     0831  340A               	retlw	10
   268     0832  3400               	retlw	0
   269     0833                     STR_2:
   270     0833  3441               	retlw	65	;'A'
   271     0834  3444               	retlw	68	;'D'
   272     0835  3443               	retlw	67	;'C'
   273     0836  3420               	retlw	32	;' '
   274     0837  343D               	retlw	61	;'='
   275     0838  3420               	retlw	32	;' '
   276     0839  3400               	retlw	0
   277                           
   278                           	psect	cinit
   279     07FC                     start_initialization:	
   280                           ; #config settings
   281                           
   282     07FC                     __initialization:
   283     07FC                     end_of_initialization:	
   284                           ;End of C runtime variable initialization code
   285                           
   286     07FC                     __end_of__initialization:
   287     07FC  0183               	clrf	3
   288     07FD  120A  158A  2F14   	ljmp	_main	;jump to C main() function
   289                           
   290                           	psect	cstackBANK1
   291     00A0                     __pcstackBANK1:
   292     00A0                     main@temp_str:
   293                           
   294                           ; 10 bytes @ 0x0
   295     00A0                     	ds	10
   296     00AA                     main@adc_str:
   297                           
   298                           ; 6 bytes @ 0xA
   299     00AA                     	ds	6
   300     00B0                     main@temperature:
   301                           
   302                           ; 4 bytes @ 0x10
   303     00B0                     	ds	4
   304     00B4                     main@adc_value:
   305                           
   306                           ; 2 bytes @ 0x14
   307     00B4                     	ds	2
   308                           
   309                           	psect	cstackCOMMON
   310     0070                     __pcstackCOMMON:
   311     0070                     ?_UART_Init:
   312     0070                     ?_UART_TxChar:	
   313                           ; 1 bytes @ 0x0
   314                           
   315     0070                     ?_ADC_Init:	
   316                           ; 1 bytes @ 0x0
   317                           
   318     0070                     ?_main:	
   319                           ; 1 bytes @ 0x0
   320                           
   321     0070                     ?__Umul8_16:	
   322                           ; 1 bytes @ 0x0
   323                           
   324     0070                     ?_ADC_Read:	
   325                           ; 2 bytes @ 0x0
   326                           
   327     0070                     ?___lwdiv:	
   328                           ; 2 bytes @ 0x0
   329                           
   330     0070                     ?___lwmod:	
   331                           ; 2 bytes @ 0x0
   332                           
   333     0070                     ?___fladd:	
   334                           ; 2 bytes @ 0x0
   335                           
   336     0070                     ?___xxtofl:	
   337                           ; 4 bytes @ 0x0
   338                           
   339     0070                     UART_TxChar@data:	
   340                           ; 4 bytes @ 0x0
   341                           
   342     0070                     __Umul8_16@multiplicand:	
   343                           ; 1 bytes @ 0x0
   344                           
   345     0070                     ___lwdiv@divisor:	
   346                           ; 1 bytes @ 0x0
   347                           
   348     0070                     ___lwmod@divisor:	
   349                           ; 2 bytes @ 0x0
   350                           
   351     0070                     ___fladd@b:	
   352                           ; 2 bytes @ 0x0
   353                           
   354     0070                     ___xxtofl@val:	
   355                           ; 4 bytes @ 0x0
   356                           
   357     0070                     ??_UART_Init:	
   358                           ; 4 bytes @ 0x0
   359                           
   360     0070                     ??_UART_TxChar:	
   361                           ; 1 bytes @ 0x0
   362                           
   363     0070                     ??_ADC_Init:	
   364                           ; 1 bytes @ 0x0
   365                           
   366                           
   367                           ; 1 bytes @ 0x0
   368     0070                     	ds	1
   369     0071                     ?_UART_TxString:
   370     0071                     UART_TxString@str:	
   371                           ; 1 bytes @ 0x1
   372                           
   373                           
   374                           ; 2 bytes @ 0x1
   375     0071                     	ds	1
   376     0072                     ___lwdiv@dividend:
   377     0072                     ___lwmod@dividend:	
   378                           ; 2 bytes @ 0x2
   379                           
   380     0072                     ??__Umul8_16:	
   381                           ; 2 bytes @ 0x2
   382                           
   383     0072                     ??_ADC_Read:	
   384                           ; 1 bytes @ 0x2
   385                           
   386                           
   387                           ; 1 bytes @ 0x2
   388     0072                     	ds	1
   389     0073                     ??_UART_TxString:
   390                           
   391                           ; 1 bytes @ 0x3
   392     0073                     	ds	1
   393     0074                     ADC_Read@channel:
   394     0074                     ___lwmod@counter:	
   395                           ; 1 bytes @ 0x4
   396                           
   397     0074                     ___lwdiv@quotient:	
   398                           ; 1 bytes @ 0x4
   399                           
   400     0074                     __Umul8_16@product:	
   401                           ; 2 bytes @ 0x4
   402                           
   403     0074                     ___fladd@a:	
   404                           ; 2 bytes @ 0x4
   405                           
   406     0074                     ??___lwdiv:	
   407                           ; 4 bytes @ 0x4
   408                           
   409     0074                     ??___lwmod:	
   410                           ; 1 bytes @ 0x4
   411                           
   412     0074                     ??___xxtofl:	
   413                           ; 1 bytes @ 0x4
   414                           
   415                           
   416                           ; 1 bytes @ 0x4
   417     0074                     	ds	2
   418     0076                     ___lwdiv@counter:
   419     0076                     __Umul8_16@word_mpld:	
   420                           ; 1 bytes @ 0x6
   421                           
   422                           
   423                           ; 2 bytes @ 0x6
   424     0076                     	ds	1
   425     0077                     ?_intToString:
   426     0077                     intToString@num:	
   427                           ; 1 bytes @ 0x7
   428                           
   429                           
   430                           ; 2 bytes @ 0x7
   431     0077                     	ds	1
   432     0078                     ___fladd@signs:
   433     0078                     __Umul8_16@multiplier:	
   434                           ; 1 bytes @ 0x8
   435                           
   436     0078                     ___xxtofl@sign:	
   437                           ; 1 bytes @ 0x8
   438                           
   439                           
   440                           ; 1 bytes @ 0x8
   441     0078                     	ds	1
   442     0079                     intToString@str:
   443     0079                     ___fladd@aexp:	
   444                           ; 1 bytes @ 0x9
   445                           
   446     0079                     ___xxtofl@exp:	
   447                           ; 1 bytes @ 0x9
   448                           
   449                           
   450                           ; 1 bytes @ 0x9
   451     0079                     	ds	1
   452     007A                     ___fladd@bexp:
   453     007A                     ___xxtofl@arg:	
   454                           ; 1 bytes @ 0xA
   455                           
   456     007A                     ??_intToString:	
   457                           ; 4 bytes @ 0xA
   458                           
   459                           
   460                           ; 1 bytes @ 0xA
   461     007A                     	ds	1
   462     007B                     ___fladd@grs:
   463                           
   464                           ; 1 bytes @ 0xB
   465     007B                     	ds	3
   466     007E                     ??___flsub:
   467                           
   468                           	psect	cstackBANK0
   469     0020                     __pcstackBANK0:	
   470                           ; 1 bytes @ 0xE
   471                           
   472     0020                     intToString@temp:
   473     0020                     ??___fladd:	
   474                           ; 6 bytes @ 0x0
   475                           
   476                           
   477                           ; 1 bytes @ 0x0
   478     0020                     	ds	6
   479     0026                     intToString@j:
   480                           
   481                           ; 2 bytes @ 0x6
   482     0026                     	ds	2
   483     0028                     ?___flsub:
   484     0028                     intToString@i:	
   485                           ; 4 bytes @ 0x8
   486                           
   487     0028                     ___flsub@a:	
   488                           ; 2 bytes @ 0x8
   489                           
   490                           
   491                           ; 4 bytes @ 0x8
   492     0028                     	ds	4
   493     002C                     ___flsub@b:
   494                           
   495                           ; 4 bytes @ 0xC
   496     002C                     	ds	4
   497     0030                     ?___flmul:
   498     0030                     ___flmul@b:	
   499                           ; 4 bytes @ 0x10
   500                           
   501                           
   502                           ; 4 bytes @ 0x10
   503     0030                     	ds	4
   504     0034                     ___flmul@a:
   505                           
   506                           ; 4 bytes @ 0x14
   507     0034                     	ds	4
   508     0038                     ??___flmul:
   509                           
   510                           ; 1 bytes @ 0x18
   511     0038                     	ds	5
   512     003D                     ___flmul@sign:
   513                           
   514                           ; 1 bytes @ 0x1D
   515     003D                     	ds	1
   516     003E                     ___flmul@grs:
   517                           
   518                           ; 4 bytes @ 0x1E
   519     003E                     	ds	4
   520     0042                     ___flmul@aexp:
   521                           
   522                           ; 1 bytes @ 0x22
   523     0042                     	ds	1
   524     0043                     ___flmul@bexp:
   525                           
   526                           ; 1 bytes @ 0x23
   527     0043                     	ds	1
   528     0044                     ___flmul@prod:
   529                           
   530                           ; 4 bytes @ 0x24
   531     0044                     	ds	4
   532     0048                     ___flmul@temp:
   533                           
   534                           ; 2 bytes @ 0x28
   535     0048                     	ds	2
   536     004A                     ?___fltol:
   537     004A                     ?___fldiv:	
   538                           ; 4 bytes @ 0x2A
   539                           
   540     004A                     ___fltol@f1:	
   541                           ; 4 bytes @ 0x2A
   542                           
   543     004A                     ___fldiv@a:	
   544                           ; 4 bytes @ 0x2A
   545                           
   546                           
   547                           ; 4 bytes @ 0x2A
   548     004A                     	ds	4
   549     004E                     ___fldiv@b:
   550     004E                     ??___fltol:	
   551                           ; 4 bytes @ 0x2E
   552                           
   553                           
   554                           ; 1 bytes @ 0x2E
   555     004E                     	ds	4
   556     0052                     ___fltol@sign1:
   557     0052                     ??___fldiv:	
   558                           ; 1 bytes @ 0x32
   559                           
   560                           
   561                           ; 1 bytes @ 0x32
   562     0052                     	ds	1
   563     0053                     ___fltol@exp1:
   564                           
   565                           ; 1 bytes @ 0x33
   566     0053                     	ds	1
   567     0054                     ?_floatToString:
   568     0054                     floatToString@num:	
   569                           ; 1 bytes @ 0x34
   570                           
   571                           
   572                           ; 4 bytes @ 0x34
   573     0054                     	ds	3
   574     0057                     ___fldiv@rem:
   575                           
   576                           ; 4 bytes @ 0x37
   577     0057                     	ds	1
   578     0058                     floatToString@str:
   579                           
   580                           ; 1 bytes @ 0x38
   581     0058                     	ds	1
   582     0059                     ??_floatToString:
   583                           
   584                           ; 1 bytes @ 0x39
   585     0059                     	ds	1
   586     005A                     floatToString@temp:
   587                           
   588                           ; 6 bytes @ 0x3A
   589     005A                     	ds	1
   590     005B                     ___fldiv@sign:
   591                           
   592                           ; 1 bytes @ 0x3B
   593     005B                     	ds	1
   594     005C                     ___fldiv@new_exp:
   595                           
   596                           ; 2 bytes @ 0x3C
   597     005C                     	ds	2
   598     005E                     ___fldiv@grs:
   599                           
   600                           ; 4 bytes @ 0x3E
   601     005E                     	ds	2
   602     0060                     floatToString@frac_part:
   603                           
   604                           ; 2 bytes @ 0x40
   605     0060                     	ds	2
   606     0062                     ___fldiv@bexp:
   607     0062                     floatToString@int_part:	
   608                           ; 1 bytes @ 0x42
   609                           
   610                           
   611                           ; 2 bytes @ 0x42
   612     0062                     	ds	1
   613     0063                     ___fldiv@aexp:
   614                           
   615                           ; 1 bytes @ 0x43
   616     0063                     	ds	1
   617     0064                     floatToString@i:
   618                           
   619                           ; 2 bytes @ 0x44
   620     0064                     	ds	2
   621     0066                     ??_main:
   622                           
   623                           ; 1 bytes @ 0x46
   624     0066                     	ds	3
   625                           
   626                           	psect	maintext
   627     0F14                     __pmaintext:	
   628 ;;
   629 ;;Main: autosize = 0, tempsize = 3, incstack = 0, save=0
   630 ;;
   631 ;; *************** function _main *****************
   632 ;; Defined at:
   633 ;;		line 157 in file "newmain.c"
   634 ;; Parameters:    Size  Location     Type
   635 ;;		None
   636 ;; Auto vars:     Size  Location     Type
   637 ;;  temp_str       10    0[BANK1 ] unsigned char [10]
   638 ;;  adc_str         6   10[BANK1 ] unsigned char [6]
   639 ;;  temperature     4   16[BANK1 ] float 
   640 ;;  adc_value       2   20[BANK1 ] unsigned int 
   641 ;; Return value:  Size  Location     Type
   642 ;;                  1    wreg      void 
   643 ;; Registers used:
   644 ;;		wreg, fsr0l, fsr0h, status,2, status,0, pclath, btemp1, cstack
   645 ;; Tracked objects:
   646 ;;		On entry : B00/0
   647 ;;		On exit  : 0/0
   648 ;;		Unchanged: 0/0
   649 ;; Data sizes:     COMMON   BANK0   BANK1   BANK3   BANK2
   650 ;;      Params:         0       0       0       0       0
   651 ;;      Locals:         0       0      22       0       0
   652 ;;      Temps:          0       3       0       0       0
   653 ;;      Totals:         0       3      22       0       0
   654 ;;Total ram usage:       25 bytes
   655 ;; Hardware stack levels required when called: 3
   656 ;; This function calls:
   657 ;;		_ADC_Init
   658 ;;		_ADC_Read
   659 ;;		_UART_Init
   660 ;;		_UART_TxString
   661 ;;		___fldiv
   662 ;;		___flmul
   663 ;;		___xxtofl
   664 ;;		_floatToString
   665 ;;		_intToString
   666 ;; This function is called by:
   667 ;;		Startup code after reset
   668 ;; This function uses a non-reentrant model
   669 ;;
   670                           
   671     0F14                     _main:	
   672                           ;psect for function _main
   673                           
   674     0F14                     l2062:	
   675                           ;incstack = 0
   676                           ; Regs used in _main: [wreg-fsr0h+status,2+status,0+pclath+btemp1+cstack]
   677                           
   678                           
   679                           ;newmain.c: 159:     UART_Init();
   680     0F14  120A  118A  2004  120A  158A  	fcall	_UART_Init
   681     0F19                     l2064:
   682                           
   683                           ;newmain.c: 160:     _delay((unsigned long)((100)*(4000000/4000.0)));
   684     0F19  3082               	movlw	130
   685     0F1A  1283               	bcf	3,5	;RP0=0, select bank0
   686     0F1B  1303               	bcf	3,6	;RP1=0, select bank0
   687     0F1C  00E7               	movwf	??_main+1
   688     0F1D  30DD               	movlw	221
   689     0F1E  00E6               	movwf	??_main
   690     0F1F                     u3217:
   691     0F1F  0BE6               	decfsz	??_main,f
   692     0F20  2F1F               	goto	u3217
   693     0F21  0BE7               	decfsz	??_main+1,f
   694     0F22  2F1F               	goto	u3217
   695     0F23                     l2066:
   696                           
   697                           ;newmain.c: 162:     UART_TxString("UART Test Start\r\n");
   698     0F23  3001               	movlw	(low ((STR_1-__stringbase)| (0+32768)))& (0+255)
   699     0F24  00F1               	movwf	UART_TxString@str
   700     0F25  3080               	movlw	128
   701     0F26  00F2               	movwf	UART_TxString@str+1
   702     0F27  120A  158A  244B  120A  158A  	fcall	_UART_TxString
   703     0F2C                     l2068:
   704                           
   705                           ;newmain.c: 164:     unsigned int adc_value;;newmain.c: 165:     float temperature;;newm
      +                          ain.c: 166:      char adc_str[6];;newmain.c: 167:     char temp_str[10];;newmain.c: 169:
      +                               ADC_Init();
   706     0F2C  120A  158A  2414  120A  158A  	fcall	_ADC_Init
   707     0F31                     l2070:
   708                           
   709                           ;newmain.c: 170:     TRISA = 0xFF;
   710     0F31  30FF               	movlw	255
   711     0F32  1683               	bsf	3,5	;RP0=1, select bank1
   712     0F33  1303               	bcf	3,6	;RP1=0, select bank1
   713     0F34  0085               	movwf	5	;volatile
   714     0F35                     l2072:
   715                           
   716                           ;newmain.c: 173:     {;newmain.c: 174:         adc_value = ADC_Read(0);
   717     0F35  3000               	movlw	0
   718     0F36  120A  158A  2471  120A  158A  	fcall	_ADC_Read
   719     0F3B  0871               	movf	?_ADC_Read+1,w
   720     0F3C  1683               	bsf	3,5	;RP0=1, select bank1
   721     0F3D  1303               	bcf	3,6	;RP1=0, select bank1
   722     0F3E  00B5               	movwf	(main@adc_value+1)^(0+128)
   723     0F3F  0870               	movf	?_ADC_Read,w
   724     0F40  00B4               	movwf	main@adc_value^(0+128)
   725     0F41                     l2074:
   726                           
   727                           ;newmain.c: 178:         temperature = (adc_value * 4.88) / 10.0;
   728     0F41  3041               	movlw	65
   729     0F42  1283               	bcf	3,5	;RP0=0, select bank0
   730     0F43  1303               	bcf	3,6	;RP1=0, select bank0
   731     0F44  00CD               	movwf	___fldiv@a+3
   732     0F45  3020               	movlw	32
   733     0F46  00CC               	movwf	___fldiv@a+2
   734     0F47  3000               	movlw	0
   735     0F48  00CB               	movwf	___fldiv@a+1
   736     0F49  3000               	movlw	0
   737     0F4A  00CA               	movwf	___fldiv@a
   738     0F4B  3040               	movlw	64
   739     0F4C  00B3               	movwf	___flmul@b+3
   740     0F4D  309C               	movlw	156
   741     0F4E  00B2               	movwf	___flmul@b+2
   742     0F4F  3028               	movlw	40
   743     0F50  00B1               	movwf	___flmul@b+1
   744     0F51  30F6               	movlw	246
   745     0F52  00B0               	movwf	___flmul@b
   746     0F53  1683               	bsf	3,5	;RP0=1, select bank1
   747     0F54  1303               	bcf	3,6	;RP1=0, select bank1
   748     0F55  0834               	movf	main@adc_value^(0+128),w
   749     0F56  00F0               	movwf	___xxtofl@val
   750     0F57  0835               	movf	(main@adc_value+1)^(0+128),w
   751     0F58  00F1               	movwf	___xxtofl@val+1
   752     0F59  01F2               	clrf	___xxtofl@val+2
   753     0F5A  01F3               	clrf	___xxtofl@val+3
   754     0F5B  3000               	movlw	0
   755     0F5C  120A  158A  2660  120A  158A  	fcall	___xxtofl
   756     0F61  0873               	movf	?___xxtofl+3,w
   757     0F62  1283               	bcf	3,5	;RP0=0, select bank0
   758     0F63  1303               	bcf	3,6	;RP1=0, select bank0
   759     0F64  00B7               	movwf	___flmul@a+3
   760     0F65  0872               	movf	?___xxtofl+2,w
   761     0F66  00B6               	movwf	___flmul@a+2
   762     0F67  0871               	movf	?___xxtofl+1,w
   763     0F68  00B5               	movwf	___flmul@a+1
   764     0F69  0870               	movf	?___xxtofl,w
   765     0F6A  00B4               	movwf	___flmul@a
   766     0F6B  120A  118A  24BA  120A  158A  	fcall	___flmul
   767     0F70  1283               	bcf	3,5	;RP0=0, select bank0
   768     0F71  1303               	bcf	3,6	;RP1=0, select bank0
   769     0F72  0833               	movf	?___flmul+3,w
   770     0F73  00D1               	movwf	___fldiv@b+3
   771     0F74  0832               	movf	?___flmul+2,w
   772     0F75  00D0               	movwf	___fldiv@b+2
   773     0F76  0831               	movf	?___flmul+1,w
   774     0F77  00CF               	movwf	___fldiv@b+1
   775     0F78  0830               	movf	?___flmul,w
   776     0F79  00CE               	movwf	___fldiv@b
   777     0F7A  120A  118A  2094  120A  158A  	fcall	___fldiv
   778     0F7F  1283               	bcf	3,5	;RP0=0, select bank0
   779     0F80  1303               	bcf	3,6	;RP1=0, select bank0
   780     0F81  084D               	movf	?___fldiv+3,w
   781     0F82  1683               	bsf	3,5	;RP0=1, select bank1
   782     0F83  1303               	bcf	3,6	;RP1=0, select bank1
   783     0F84  00B3               	movwf	(main@temperature+3)^(0+128)
   784     0F85  1283               	bcf	3,5	;RP0=0, select bank0
   785     0F86  1303               	bcf	3,6	;RP1=0, select bank0
   786     0F87  084C               	movf	?___fldiv+2,w
   787     0F88  1683               	bsf	3,5	;RP0=1, select bank1
   788     0F89  1303               	bcf	3,6	;RP1=0, select bank1
   789     0F8A  00B2               	movwf	(main@temperature+2)^(0+128)
   790     0F8B  1283               	bcf	3,5	;RP0=0, select bank0
   791     0F8C  1303               	bcf	3,6	;RP1=0, select bank0
   792     0F8D  084B               	movf	?___fldiv+1,w
   793     0F8E  1683               	bsf	3,5	;RP0=1, select bank1
   794     0F8F  1303               	bcf	3,6	;RP1=0, select bank1
   795     0F90  00B1               	movwf	(main@temperature+1)^(0+128)
   796     0F91  1283               	bcf	3,5	;RP0=0, select bank0
   797     0F92  1303               	bcf	3,6	;RP1=0, select bank0
   798     0F93  084A               	movf	?___fldiv,w
   799     0F94  1683               	bsf	3,5	;RP0=1, select bank1
   800     0F95  1303               	bcf	3,6	;RP1=0, select bank1
   801     0F96  00B0               	movwf	main@temperature^(0+128)
   802     0F97                     l2076:
   803                           
   804                           ;newmain.c: 180:         intToString(adc_value, adc_str);
   805     0F97  0835               	movf	(main@adc_value+1)^(0+128),w
   806     0F98  00F8               	movwf	intToString@num+1
   807     0F99  0834               	movf	main@adc_value^(0+128),w
   808     0F9A  00F7               	movwf	intToString@num
   809     0F9B  30AA               	movlw	(low (main@adc_str| 0))& (0+255)
   810     0F9C  00F9               	movwf	intToString@str
   811     0F9D  120A  118A  2013  120A  158A  	fcall	_intToString
   812     0FA2                     l2078:
   813                           
   814                           ;newmain.c: 181:         floatToString(temperature, temp_str);
   815     0FA2  1683               	bsf	3,5	;RP0=1, select bank1
   816     0FA3  1303               	bcf	3,6	;RP1=0, select bank1
   817     0FA4  0833               	movf	(main@temperature+3)^(0+128),w
   818     0FA5  1283               	bcf	3,5	;RP0=0, select bank0
   819     0FA6  1303               	bcf	3,6	;RP1=0, select bank0
   820     0FA7  00D7               	movwf	floatToString@num+3
   821     0FA8  1683               	bsf	3,5	;RP0=1, select bank1
   822     0FA9  1303               	bcf	3,6	;RP1=0, select bank1
   823     0FAA  0832               	movf	(main@temperature+2)^(0+128),w
   824     0FAB  1283               	bcf	3,5	;RP0=0, select bank0
   825     0FAC  1303               	bcf	3,6	;RP1=0, select bank0
   826     0FAD  00D6               	movwf	floatToString@num+2
   827     0FAE  1683               	bsf	3,5	;RP0=1, select bank1
   828     0FAF  1303               	bcf	3,6	;RP1=0, select bank1
   829     0FB0  0831               	movf	(main@temperature+1)^(0+128),w
   830     0FB1  1283               	bcf	3,5	;RP0=0, select bank0
   831     0FB2  1303               	bcf	3,6	;RP1=0, select bank0
   832     0FB3  00D5               	movwf	floatToString@num+1
   833     0FB4  1683               	bsf	3,5	;RP0=1, select bank1
   834     0FB5  1303               	bcf	3,6	;RP1=0, select bank1
   835     0FB6  0830               	movf	main@temperature^(0+128),w
   836     0FB7  1283               	bcf	3,5	;RP0=0, select bank0
   837     0FB8  1303               	bcf	3,6	;RP1=0, select bank0
   838     0FB9  00D4               	movwf	floatToString@num
   839     0FBA  30A0               	movlw	(low (main@temp_str| 0))& (0+255)
   840     0FBB  00D8               	movwf	floatToString@str
   841     0FBC  120A  158A  25AF  120A  158A  	fcall	_floatToString
   842     0FC1                     l2080:
   843                           
   844                           ;newmain.c: 183:         UART_TxString("ADC = ");
   845     0FC1  3024               	movlw	(low ((STR_2-__stringbase)| (0+32768)))& (0+255)
   846     0FC2  00F1               	movwf	UART_TxString@str
   847     0FC3  3080               	movlw	128
   848     0FC4  00F2               	movwf	UART_TxString@str+1
   849     0FC5  120A  158A  244B  120A  158A  	fcall	_UART_TxString
   850     0FCA                     l2082:
   851                           
   852                           ;newmain.c: 184:         UART_TxString(adc_str);
   853     0FCA  30AA               	movlw	(low (main@adc_str| 0))& (0+255)
   854     0FCB  00F1               	movwf	UART_TxString@str
   855     0FCC  3000               	movlw	0
   856     0FCD  00F2               	movwf	UART_TxString@str+1
   857     0FCE  120A  158A  244B  120A  158A  	fcall	_UART_TxString
   858     0FD3                     l2084:
   859                           
   860                           ;newmain.c: 185:         UART_TxString("\r\nTemp = ");
   861     0FD3  3013               	movlw	(low ((STR_3-__stringbase)| (0+32768)))& (0+255)
   862     0FD4  00F1               	movwf	UART_TxString@str
   863     0FD5  3080               	movlw	128
   864     0FD6  00F2               	movwf	UART_TxString@str+1
   865     0FD7  120A  158A  244B  120A  158A  	fcall	_UART_TxString
   866     0FDC                     l2086:
   867                           
   868                           ;newmain.c: 186:         UART_TxString(temp_str);
   869     0FDC  30A0               	movlw	(low (main@temp_str| 0))& (0+255)
   870     0FDD  00F1               	movwf	UART_TxString@str
   871     0FDE  3000               	movlw	0
   872     0FDF  00F2               	movwf	UART_TxString@str+1
   873     0FE0  120A  158A  244B  120A  158A  	fcall	_UART_TxString
   874     0FE5                     l2088:
   875                           
   876                           ;newmain.c: 187:         UART_TxString(" C\r\n\r\n");
   877     0FE5  301D               	movlw	(low ((STR_4-__stringbase)| (0+32768)))& (0+255)
   878     0FE6  00F1               	movwf	UART_TxString@str
   879     0FE7  3080               	movlw	128
   880     0FE8  00F2               	movwf	UART_TxString@str+1
   881     0FE9  120A  158A  244B  120A  158A  	fcall	_UART_TxString
   882     0FEE                     l2090:
   883                           
   884                           ;newmain.c: 189:         _delay((unsigned long)((1000)*(4000000/4000.0)));
   885     0FEE  3006               	movlw	6
   886     0FEF  1283               	bcf	3,5	;RP0=0, select bank0
   887     0FF0  1303               	bcf	3,6	;RP1=0, select bank0
   888     0FF1  00E8               	movwf	??_main+2
   889     0FF2  3013               	movlw	19
   890     0FF3  00E7               	movwf	??_main+1
   891     0FF4  30AD               	movlw	173
   892     0FF5  00E6               	movwf	??_main
   893     0FF6                     u3227:
   894     0FF6  0BE6               	decfsz	??_main,f
   895     0FF7  2FF6               	goto	u3227
   896     0FF8  0BE7               	decfsz	??_main+1,f
   897     0FF9  2FF6               	goto	u3227
   898     0FFA  0BE8               	decfsz	??_main+2,f
   899     0FFB  2FF6               	goto	u3227
   900     0FFC  2F35               	goto	l2072
   901     0FFD  120A  118A  2800   	ljmp	start
   902     1000                     __end_of_main:
   903                           
   904                           	psect	text1
   905     0DAF                     __ptext1:	
   906 ;; *************** function _floatToString *****************
   907 ;; Defined at:
   908 ;;		line 136 in file "newmain.c"
   909 ;; Parameters:    Size  Location     Type
   910 ;;  num             4   52[BANK0 ] float 
   911 ;;  str             1   56[BANK0 ] PTR unsigned char 
   912 ;;		 -> main@temp_str(10), 
   913 ;; Auto vars:     Size  Location     Type
   914 ;;  temp            6   58[BANK0 ] unsigned char [6]
   915 ;;  i               2   68[BANK0 ] int 
   916 ;;  int_part        2   66[BANK0 ] unsigned int 
   917 ;;  frac_part       2   64[BANK0 ] unsigned int 
   918 ;;  j               2    0        int 
   919 ;; Return value:  Size  Location     Type
   920 ;;                  1    wreg      void 
   921 ;; Registers used:
   922 ;;		wreg, fsr0l, fsr0h, status,2, status,0, pclath, btemp1, cstack
   923 ;; Tracked objects:
   924 ;;		On entry : 0/0
   925 ;;		On exit  : 0/0
   926 ;;		Unchanged: 0/0
   927 ;; Data sizes:     COMMON   BANK0   BANK1   BANK3   BANK2
   928 ;;      Params:         0       5       0       0       0
   929 ;;      Locals:         0      12       0       0       0
   930 ;;      Temps:          0       1       0       0       0
   931 ;;      Totals:         0      18       0       0       0
   932 ;;Total ram usage:       18 bytes
   933 ;; Hardware stack levels used: 1
   934 ;; Hardware stack levels required when called: 2
   935 ;; This function calls:
   936 ;;		___flmul
   937 ;;		___flsub
   938 ;;		___fltol
   939 ;;		___xxtofl
   940 ;;		_intToString
   941 ;; This function is called by:
   942 ;;		_main
   943 ;; This function uses a non-reentrant model
   944 ;;
   945                           
   946     0DAF                     _floatToString:	
   947                           ;psect for function _floatToString
   948                           
   949     0DAF                     l1896:	
   950                           ;incstack = 0
   951                           ; Regs used in _floatToString: [wreg-fsr0h+status,2+status,0+pclath+btemp1+cstack]
   952                           
   953                           
   954                           ;newmain.c: 136: void floatToString(float num, char *str);newmain.c: 137: {;newmain.c: 1
      +                          38:     unsigned int int_part, frac_part;;newmain.c: 139:     char temp[6];;newmain.c: 1
      +                          40:     int i = 0, j;
   955     0DAF  1283               	bcf	3,5	;RP0=0, select bank0
   956     0DB0  1303               	bcf	3,6	;RP1=0, select bank0
   957     0DB1  01E4               	clrf	floatToString@i
   958     0DB2  01E5               	clrf	floatToString@i+1
   959     0DB3                     l1898:
   960                           
   961                           ;newmain.c: 142:     int_part = (unsigned int)num;
   962     0DB3  0857               	movf	floatToString@num+3,w
   963     0DB4  00CD               	movwf	___fltol@f1+3
   964     0DB5  0856               	movf	floatToString@num+2,w
   965     0DB6  00CC               	movwf	___fltol@f1+2
   966     0DB7  0855               	movf	floatToString@num+1,w
   967     0DB8  00CB               	movwf	___fltol@f1+1
   968     0DB9  0854               	movf	floatToString@num,w
   969     0DBA  00CA               	movwf	___fltol@f1
   970     0DBB  120A  158A  2539  120A  158A  	fcall	___fltol
   971     0DC0  1283               	bcf	3,5	;RP0=0, select bank0
   972     0DC1  1303               	bcf	3,6	;RP1=0, select bank0
   973     0DC2  084B               	movf	?___fltol+1,w
   974     0DC3  00E3               	movwf	floatToString@int_part+1
   975     0DC4  084A               	movf	?___fltol,w
   976     0DC5  00E2               	movwf	floatToString@int_part
   977     0DC6                     l1900:
   978                           
   979                           ;newmain.c: 143:     frac_part = (unsigned int)((num - int_part) * 10);
   980     0DC6  0857               	movf	floatToString@num+3,w
   981     0DC7  00AF               	movwf	___flsub@b+3
   982     0DC8  0856               	movf	floatToString@num+2,w
   983     0DC9  00AE               	movwf	___flsub@b+2
   984     0DCA  0855               	movf	floatToString@num+1,w
   985     0DCB  00AD               	movwf	___flsub@b+1
   986     0DCC  0854               	movf	floatToString@num,w
   987     0DCD  00AC               	movwf	___flsub@b
   988     0DCE  0862               	movf	floatToString@int_part,w
   989     0DCF  00F0               	movwf	___xxtofl@val
   990     0DD0  0863               	movf	floatToString@int_part+1,w
   991     0DD1  00F1               	movwf	___xxtofl@val+1
   992     0DD2  01F2               	clrf	___xxtofl@val+2
   993     0DD3  01F3               	clrf	___xxtofl@val+3
   994     0DD4  3000               	movlw	0
   995     0DD5  120A  158A  2660  120A  158A  	fcall	___xxtofl
   996     0DDA  0873               	movf	?___xxtofl+3,w
   997     0DDB  1283               	bcf	3,5	;RP0=0, select bank0
   998     0DDC  1303               	bcf	3,6	;RP1=0, select bank0
   999     0DDD  00AB               	movwf	___flsub@a+3
  1000     0DDE  0872               	movf	?___xxtofl+2,w
  1001     0DDF  00AA               	movwf	___flsub@a+2
  1002     0DE0  0871               	movf	?___xxtofl+1,w
  1003     0DE1  00A9               	movwf	___flsub@a+1
  1004     0DE2  0870               	movf	?___xxtofl,w
  1005     0DE3  00A8               	movwf	___flsub@a
  1006     0DE4  120A  158A  2427  120A  158A  	fcall	___flsub
  1007     0DE9  1283               	bcf	3,5	;RP0=0, select bank0
  1008     0DEA  1303               	bcf	3,6	;RP1=0, select bank0
  1009     0DEB  082B               	movf	?___flsub+3,w
  1010     0DEC  00B7               	movwf	___flmul@a+3
  1011     0DED  082A               	movf	?___flsub+2,w
  1012     0DEE  00B6               	movwf	___flmul@a+2
  1013     0DEF  0829               	movf	?___flsub+1,w
  1014     0DF0  00B5               	movwf	___flmul@a+1
  1015     0DF1  0828               	movf	?___flsub,w
  1016     0DF2  00B4               	movwf	___flmul@a
  1017     0DF3  3041               	movlw	65
  1018     0DF4  00B3               	movwf	___flmul@b+3
  1019     0DF5  3020               	movlw	32
  1020     0DF6  00B2               	movwf	___flmul@b+2
  1021     0DF7  3000               	movlw	0
  1022     0DF8  00B1               	movwf	___flmul@b+1
  1023     0DF9  3000               	movlw	0
  1024     0DFA  00B0               	movwf	___flmul@b
  1025     0DFB  120A  118A  24BA  120A  158A  	fcall	___flmul
  1026     0E00  1283               	bcf	3,5	;RP0=0, select bank0
  1027     0E01  1303               	bcf	3,6	;RP1=0, select bank0
  1028     0E02  0833               	movf	?___flmul+3,w
  1029     0E03  00CD               	movwf	___fltol@f1+3
  1030     0E04  0832               	movf	?___flmul+2,w
  1031     0E05  00CC               	movwf	___fltol@f1+2
  1032     0E06  0831               	movf	?___flmul+1,w
  1033     0E07  00CB               	movwf	___fltol@f1+1
  1034     0E08  0830               	movf	?___flmul,w
  1035     0E09  00CA               	movwf	___fltol@f1
  1036     0E0A  120A  158A  2539  120A  158A  	fcall	___fltol
  1037     0E0F  1283               	bcf	3,5	;RP0=0, select bank0
  1038     0E10  1303               	bcf	3,6	;RP1=0, select bank0
  1039     0E11  084B               	movf	?___fltol+1,w
  1040     0E12  00E1               	movwf	floatToString@frac_part+1
  1041     0E13  084A               	movf	?___fltol,w
  1042     0E14  00E0               	movwf	floatToString@frac_part
  1043     0E15                     l1902:
  1044                           
  1045                           ;newmain.c: 145:     intToString(int_part, temp);
  1046     0E15  0863               	movf	floatToString@int_part+1,w
  1047     0E16  00F8               	movwf	intToString@num+1
  1048     0E17  0862               	movf	floatToString@int_part,w
  1049     0E18  00F7               	movwf	intToString@num
  1050     0E19  305A               	movlw	(low (floatToString@temp| 0))& (0+255)
  1051     0E1A  00F9               	movwf	intToString@str
  1052     0E1B  120A  118A  2013  120A  158A  	fcall	_intToString
  1053                           
  1054                           ;newmain.c: 146:     while(temp[i] != '\0') {
  1055     0E20  2E33               	goto	l1908
  1056     0E21                     l1904:
  1057                           
  1058                           ;newmain.c: 147:         str[i] = temp[i];
  1059     0E21  0864               	movf	floatToString@i,w
  1060     0E22  3E5A               	addlw	(low (floatToString@temp| 0))& (0+255)
  1061     0E23  0084               	movwf	4
  1062     0E24  0800               	movf	0,w
  1063     0E25  00FF               	movwf	btemp1
  1064     0E26  0864               	movf	floatToString@i,w
  1065     0E27  0758               	addwf	floatToString@str,w
  1066     0E28  00D9               	movwf	??_floatToString
  1067     0E29  0859               	movf	??_floatToString,w
  1068     0E2A  0084               	movwf	4
  1069     0E2B  087F               	movf	btemp1,w
  1070     0E2C  0080               	movwf	0
  1071     0E2D                     l1906:
  1072                           
  1073                           ;newmain.c: 148:         i++;
  1074     0E2D  3001               	movlw	1
  1075     0E2E  07E4               	addwf	floatToString@i,f
  1076     0E2F  1803               	skipnc
  1077     0E30  0AE5               	incf	floatToString@i+1,f
  1078     0E31  3000               	movlw	0
  1079     0E32  07E5               	addwf	floatToString@i+1,f
  1080     0E33                     l1908:
  1081                           
  1082                           ;newmain.c: 146:     while(temp[i] != '\0') {
  1083     0E33  1283               	bcf	3,5	;RP0=0, select bank0
  1084     0E34  1303               	bcf	3,6	;RP1=0, select bank0
  1085     0E35  0864               	movf	floatToString@i,w
  1086     0E36  3E5A               	addlw	(low (floatToString@temp| 0))& (0+255)
  1087     0E37  0084               	movwf	4
  1088     0E38  1383               	bcf	3,7	;select IRP bank0
  1089     0E39  0800               	movf	0,w
  1090     0E3A  1D03               	btfss	3,2
  1091     0E3B  2E3D               	goto	u2911
  1092     0E3C  2E3E               	goto	u2910
  1093     0E3D                     u2911:
  1094     0E3D  2E21               	goto	l1904
  1095     0E3E                     u2910:
  1096     0E3E                     l1910:
  1097                           
  1098                           ;newmain.c: 151:     str[i++] = '.';
  1099     0E3E  0864               	movf	floatToString@i,w
  1100     0E3F  0758               	addwf	floatToString@str,w
  1101     0E40  00D9               	movwf	??_floatToString
  1102     0E41  0859               	movf	??_floatToString,w
  1103     0E42  0084               	movwf	4
  1104     0E43  302E               	movlw	46
  1105     0E44  0080               	movwf	0
  1106     0E45                     l1912:
  1107     0E45  3001               	movlw	1
  1108     0E46  07E4               	addwf	floatToString@i,f
  1109     0E47  1803               	skipnc
  1110     0E48  0AE5               	incf	floatToString@i+1,f
  1111     0E49  3000               	movlw	0
  1112     0E4A  07E5               	addwf	floatToString@i+1,f
  1113     0E4B                     l1914:
  1114                           
  1115                           ;newmain.c: 152:     str[i++] = frac_part + '0';
  1116     0E4B  0864               	movf	floatToString@i,w
  1117     0E4C  0758               	addwf	floatToString@str,w
  1118     0E4D  00D9               	movwf	??_floatToString
  1119     0E4E  0859               	movf	??_floatToString,w
  1120     0E4F  0084               	movwf	4
  1121     0E50  0860               	movf	floatToString@frac_part,w
  1122     0E51  3E30               	addlw	48
  1123     0E52  0080               	movwf	0
  1124     0E53  3001               	movlw	1
  1125     0E54  07E4               	addwf	floatToString@i,f
  1126     0E55  1803               	skipnc
  1127     0E56  0AE5               	incf	floatToString@i+1,f
  1128     0E57  3000               	movlw	0
  1129     0E58  07E5               	addwf	floatToString@i+1,f
  1130     0E59                     l1916:
  1131                           
  1132                           ;newmain.c: 153:     str[i] = '\0';
  1133     0E59  0864               	movf	floatToString@i,w
  1134     0E5A  0758               	addwf	floatToString@str,w
  1135     0E5B  00D9               	movwf	??_floatToString
  1136     0E5C  0859               	movf	??_floatToString,w
  1137     0E5D  0084               	movwf	4
  1138     0E5E  0180               	clrf	0
  1139     0E5F                     l68:
  1140     0E5F  0008               	return
  1141     0E60                     __end_of_floatToString:
  1142                           
  1143                           	psect	text2
  1144     0013                     __ptext2:	
  1145 ;; *************** function _intToString *****************
  1146 ;; Defined at:
  1147 ;;		line 110 in file "newmain.c"
  1148 ;; Parameters:    Size  Location     Type
  1149 ;;  num             2    7[COMMON] unsigned int 
  1150 ;;  str             1    9[COMMON] PTR unsigned char 
  1151 ;;		 -> main@adc_str(6), floatToString@temp(6), 
  1152 ;; Auto vars:     Size  Location     Type
  1153 ;;  temp            6    0[BANK0 ] unsigned char [6]
  1154 ;;  i               2    8[BANK0 ] int 
  1155 ;;  j               2    6[BANK0 ] int 
  1156 ;; Return value:  Size  Location     Type
  1157 ;;                  1    wreg      void 
  1158 ;; Registers used:
  1159 ;;		wreg, fsr0l, fsr0h, status,2, status,0, pclath, btemp1, cstack
  1160 ;; Tracked objects:
  1161 ;;		On entry : 0/0
  1162 ;;		On exit  : 0/0
  1163 ;;		Unchanged: 0/0
  1164 ;; Data sizes:     COMMON   BANK0   BANK1   BANK3   BANK2
  1165 ;;      Params:         3       0       0       0       0
  1166 ;;      Locals:         0      10       0       0       0
  1167 ;;      Temps:          3       0       0       0       0
  1168 ;;      Totals:         6      10       0       0       0
  1169 ;;Total ram usage:       16 bytes
  1170 ;; Hardware stack levels used: 1
  1171 ;; This function calls:
  1172 ;;		___lwdiv
  1173 ;;		___lwmod
  1174 ;; This function is called by:
  1175 ;;		_floatToString
  1176 ;;		_main
  1177 ;; This function uses a non-reentrant model
  1178 ;;
  1179                           
  1180     0013                     _intToString:	
  1181                           ;psect for function _intToString
  1182                           
  1183     0013                     l1620:	
  1184                           ;incstack = 0
  1185                           ; Regs used in _intToString: [wreg-fsr0h+status,2+status,0+pclath+btemp1+cstack]
  1186                           
  1187                           
  1188                           ;newmain.c: 110: void intToString(unsigned int num, char *str);newmain.c: 111: {;newmain
      +                          .c: 112:     char temp[6];;newmain.c: 113:     int i = 0, j = 0;
  1189     0013  1283               	bcf	3,5	;RP0=0, select bank0
  1190     0014  1303               	bcf	3,6	;RP1=0, select bank0
  1191     0015  01A8               	clrf	intToString@i
  1192     0016  01A9               	clrf	intToString@i+1
  1193     0017                     l1622:
  1194                           
  1195                           ;newmain.c: 115:     if(num == 0)
  1196     0017  0877               	movf	intToString@num,w
  1197     0018  0478               	iorwf	intToString@num+1,w
  1198     0019  1D03               	btfss	3,2
  1199     001A  281C               	goto	u2241
  1200     001B  281D               	goto	u2240
  1201     001C                     u2241:
  1202     001C  2855               	goto	l1636
  1203     001D                     u2240:
  1204     001D                     l1624:
  1205                           
  1206                           ;newmain.c: 116:     {;newmain.c: 117:         str[0] = '0';
  1207     001D  0879               	movf	intToString@str,w
  1208     001E  0084               	movwf	4
  1209     001F  3030               	movlw	48
  1210     0020  1383               	bcf	3,7	;select IRP bank0
  1211     0021  0080               	movwf	0
  1212     0022                     l1626:
  1213                           
  1214                           ;newmain.c: 118:         str[1] = '\0';
  1215     0022  0A79               	incf	intToString@str,w
  1216     0023  0084               	movwf	4
  1217     0024  0180               	clrf	0
  1218     0025  2893               	goto	l56
  1219     0026                     l1630:
  1220                           
  1221                           ;newmain.c: 123:     {;newmain.c: 124:         temp[i++] = (num % 10) + '0';
  1222     0026  1283               	bcf	3,5	;RP0=0, select bank0
  1223     0027  1303               	bcf	3,6	;RP1=0, select bank0
  1224     0028  0828               	movf	intToString@i,w
  1225     0029  3E20               	addlw	(low (intToString@temp| 0))& (0+255)
  1226     002A  0084               	movwf	4
  1227     002B  300A               	movlw	10
  1228     002C  00F0               	movwf	___lwmod@divisor
  1229     002D  3000               	movlw	0
  1230     002E  00F1               	movwf	___lwmod@divisor+1
  1231     002F  0878               	movf	intToString@num+1,w
  1232     0030  00F3               	movwf	___lwmod@dividend+1
  1233     0031  0877               	movf	intToString@num,w
  1234     0032  00F2               	movwf	___lwmod@dividend
  1235     0033  120A  158A  24BF  120A  118A  	fcall	___lwmod
  1236     0038  0870               	movf	?___lwmod,w
  1237     0039  3E30               	addlw	48
  1238     003A  1383               	bcf	3,7	;select IRP bank0
  1239     003B  0080               	movwf	0
  1240     003C                     l1632:
  1241     003C  3001               	movlw	1
  1242     003D  1283               	bcf	3,5	;RP0=0, select bank0
  1243     003E  1303               	bcf	3,6	;RP1=0, select bank0
  1244     003F  07A8               	addwf	intToString@i,f
  1245     0040  1803               	skipnc
  1246     0041  0AA9               	incf	intToString@i+1,f
  1247     0042  3000               	movlw	0
  1248     0043  07A9               	addwf	intToString@i+1,f
  1249     0044                     l1634:
  1250                           
  1251                           ;newmain.c: 125:         num /= 10;
  1252     0044  300A               	movlw	10
  1253     0045  00F0               	movwf	___lwdiv@divisor
  1254     0046  3000               	movlw	0
  1255     0047  00F1               	movwf	___lwdiv@divisor+1
  1256     0048  0878               	movf	intToString@num+1,w
  1257     0049  00F3               	movwf	___lwdiv@dividend+1
  1258     004A  0877               	movf	intToString@num,w
  1259     004B  00F2               	movwf	___lwdiv@dividend
  1260     004C  120A  158A  24F7  120A  118A  	fcall	___lwdiv
  1261     0051  0871               	movf	?___lwdiv+1,w
  1262     0052  00F8               	movwf	intToString@num+1
  1263     0053  0870               	movf	?___lwdiv,w
  1264     0054  00F7               	movwf	intToString@num
  1265     0055                     l1636:
  1266                           
  1267                           ;newmain.c: 122:     while(num > 0)
  1268     0055  0877               	movf	intToString@num,w
  1269     0056  0478               	iorwf	intToString@num+1,w
  1270     0057  1D03               	btfss	3,2
  1271     0058  285A               	goto	u2251
  1272     0059  285B               	goto	u2250
  1273     005A                     u2251:
  1274     005A  2826               	goto	l1630
  1275     005B                     u2250:
  1276     005B                     l1638:
  1277                           
  1278                           ;newmain.c: 129:     for(j = 0; j < i; j++)
  1279     005B  1283               	bcf	3,5	;RP0=0, select bank0
  1280     005C  1303               	bcf	3,6	;RP1=0, select bank0
  1281     005D  01A6               	clrf	intToString@j
  1282     005E  01A7               	clrf	intToString@j+1
  1283     005F  287C               	goto	l1644
  1284     0060                     l1640:
  1285                           
  1286                           ;newmain.c: 130:         str[j] = temp[i - j - 1];
  1287     0060  3020               	movlw	(low (intToString@temp| 0))& (0+255)
  1288     0061  00FA               	movwf	??_intToString
  1289     0062  1283               	bcf	3,5	;RP0=0, select bank0
  1290     0063  1303               	bcf	3,6	;RP1=0, select bank0
  1291     0064  0826               	movf	intToString@j,w
  1292     0065  02FA               	subwf	??_intToString,f
  1293     0066  0828               	movf	intToString@i,w
  1294     0067  077A               	addwf	??_intToString,w
  1295     0068  00FB               	movwf	??_intToString+1
  1296     0069  087B               	movf	??_intToString+1,w
  1297     006A  3EFF               	addlw	-1
  1298     006B  0084               	movwf	4
  1299     006C  1383               	bcf	3,7	;select IRP bank0
  1300     006D  0800               	movf	0,w
  1301     006E  00FF               	movwf	btemp1
  1302     006F  0826               	movf	intToString@j,w
  1303     0070  0779               	addwf	intToString@str,w
  1304     0071  00FC               	movwf	??_intToString+2
  1305     0072  087C               	movf	??_intToString+2,w
  1306     0073  0084               	movwf	4
  1307     0074  087F               	movf	btemp1,w
  1308     0075  0080               	movwf	0
  1309     0076                     l1642:
  1310     0076  3001               	movlw	1
  1311     0077  07A6               	addwf	intToString@j,f
  1312     0078  1803               	skipnc
  1313     0079  0AA7               	incf	intToString@j+1,f
  1314     007A  3000               	movlw	0
  1315     007B  07A7               	addwf	intToString@j+1,f
  1316     007C                     l1644:
  1317     007C  0827               	movf	intToString@j+1,w
  1318     007D  3A80               	xorlw	128
  1319     007E  00FA               	movwf	??_intToString
  1320     007F  0829               	movf	intToString@i+1,w
  1321     0080  3A80               	xorlw	128
  1322     0081  027A               	subwf	??_intToString,w
  1323     0082  1D03               	skipz
  1324     0083  2886               	goto	u2265
  1325     0084  0828               	movf	intToString@i,w
  1326     0085  0226               	subwf	intToString@j,w
  1327     0086                     u2265:
  1328     0086  1C03               	skipc
  1329     0087  2889               	goto	u2261
  1330     0088  288A               	goto	u2260
  1331     0089                     u2261:
  1332     0089  2860               	goto	l1640
  1333     008A                     u2260:
  1334     008A                     l1646:
  1335                           
  1336                           ;newmain.c: 132:     str[i] = '\0';
  1337     008A  1283               	bcf	3,5	;RP0=0, select bank0
  1338     008B  1303               	bcf	3,6	;RP1=0, select bank0
  1339     008C  0828               	movf	intToString@i,w
  1340     008D  0779               	addwf	intToString@str,w
  1341     008E  00FA               	movwf	??_intToString
  1342     008F  087A               	movf	??_intToString,w
  1343     0090  0084               	movwf	4
  1344     0091  1383               	bcf	3,7	;select IRP bank0
  1345     0092  0180               	clrf	0
  1346     0093                     l56:
  1347     0093  0008               	return
  1348     0094                     __end_of_intToString:
  1349                           
  1350                           	psect	text3
  1351     0CBF                     __ptext3:	
  1352 ;; *************** function ___lwmod *****************
  1353 ;; Defined at:
  1354 ;;		line 5 in file "C:\Program Files\Microchip\xc8\v3.10\pic\sources\c99\common\lwmod.c"
  1355 ;; Parameters:    Size  Location     Type
  1356 ;;  divisor         2    0[COMMON] unsigned int 
  1357 ;;  dividend        2    2[COMMON] unsigned int 
  1358 ;; Auto vars:     Size  Location     Type
  1359 ;;  counter         1    4[COMMON] unsigned char 
  1360 ;; Return value:  Size  Location     Type
  1361 ;;                  2    0[COMMON] unsigned int 
  1362 ;; Registers used:
  1363 ;;		wreg, status,2, status,0
  1364 ;; Tracked objects:
  1365 ;;		On entry : 0/0
  1366 ;;		On exit  : 0/0
  1367 ;;		Unchanged: 0/0
  1368 ;; Data sizes:     COMMON   BANK0   BANK1   BANK3   BANK2
  1369 ;;      Params:         4       0       0       0       0
  1370 ;;      Locals:         1       0       0       0       0
  1371 ;;      Temps:          0       0       0       0       0
  1372 ;;      Totals:         5       0       0       0       0
  1373 ;;Total ram usage:        5 bytes
  1374 ;; Hardware stack levels used: 1
  1375 ;; This function calls:
  1376 ;;		Nothing
  1377 ;; This function is called by:
  1378 ;;		_intToString
  1379 ;; This function uses a non-reentrant model
  1380 ;;
  1381                           
  1382     0CBF                     ___lwmod:	
  1383                           ;psect for function ___lwmod
  1384                           
  1385     0CBF                     l1382:	
  1386                           ;incstack = 0
  1387                           ; Regs used in ___lwmod: [wreg+status,2+status,0]
  1388                           
  1389     0CBF  0870               	movf	___lwmod@divisor,w
  1390     0CC0  0471               	iorwf	___lwmod@divisor+1,w
  1391     0CC1  1903               	btfsc	3,2
  1392     0CC2  2CC4               	goto	u1681
  1393     0CC3  2CC5               	goto	u1680
  1394     0CC4                     u1681:
  1395     0CC4  2CF2               	goto	l1400
  1396     0CC5                     u1680:
  1397     0CC5                     l1384:
  1398     0CC5  3001               	movlw	1
  1399     0CC6  00F4               	movwf	___lwmod@counter
  1400     0CC7  2CD1               	goto	l1390
  1401     0CC8                     l1386:
  1402     0CC8  3001               	movlw	1
  1403     0CC9                     u1695:
  1404     0CC9  1003               	clrc
  1405     0CCA  0DF0               	rlf	___lwmod@divisor,f
  1406     0CCB  0DF1               	rlf	___lwmod@divisor+1,f
  1407     0CCC  3EFF               	addlw	-1
  1408     0CCD  1D03               	skipz
  1409     0CCE  2CC9               	goto	u1695
  1410     0CCF                     l1388:
  1411     0CCF  3001               	movlw	1
  1412     0CD0  07F4               	addwf	___lwmod@counter,f
  1413     0CD1                     l1390:
  1414     0CD1  1FF1               	btfss	___lwmod@divisor+1,7
  1415     0CD2  2CD4               	goto	u1701
  1416     0CD3  2CD5               	goto	u1700
  1417     0CD4                     u1701:
  1418     0CD4  2CC8               	goto	l1386
  1419     0CD5                     u1700:
  1420     0CD5                     l1392:
  1421     0CD5  0871               	movf	___lwmod@divisor+1,w
  1422     0CD6  0273               	subwf	___lwmod@dividend+1,w
  1423     0CD7  1D03               	skipz
  1424     0CD8  2CDB               	goto	u1715
  1425     0CD9  0870               	movf	___lwmod@divisor,w
  1426     0CDA  0272               	subwf	___lwmod@dividend,w
  1427     0CDB                     u1715:
  1428     0CDB  1C03               	skipc
  1429     0CDC  2CDE               	goto	u1711
  1430     0CDD  2CDF               	goto	u1710
  1431     0CDE                     u1711:
  1432     0CDE  2CE5               	goto	l1396
  1433     0CDF                     u1710:
  1434     0CDF                     l1394:
  1435     0CDF  0870               	movf	___lwmod@divisor,w
  1436     0CE0  02F2               	subwf	___lwmod@dividend,f
  1437     0CE1  0871               	movf	___lwmod@divisor+1,w
  1438     0CE2  1C03               	skipc
  1439     0CE3  03F3               	decf	___lwmod@dividend+1,f
  1440     0CE4  02F3               	subwf	___lwmod@dividend+1,f
  1441     0CE5                     l1396:
  1442     0CE5  3001               	movlw	1
  1443     0CE6                     u1725:
  1444     0CE6  1003               	clrc
  1445     0CE7  0CF1               	rrf	___lwmod@divisor+1,f
  1446     0CE8  0CF0               	rrf	___lwmod@divisor,f
  1447     0CE9  3EFF               	addlw	-1
  1448     0CEA  1D03               	skipz
  1449     0CEB  2CE6               	goto	u1725
  1450     0CEC                     l1398:
  1451     0CEC  3001               	movlw	1
  1452     0CED  02F4               	subwf	___lwmod@counter,f
  1453     0CEE  1D03               	btfss	3,2
  1454     0CEF  2CF1               	goto	u1731
  1455     0CF0  2CF2               	goto	u1730
  1456     0CF1                     u1731:
  1457     0CF1  2CD5               	goto	l1392
  1458     0CF2                     u1730:
  1459     0CF2                     l1400:
  1460     0CF2  0873               	movf	___lwmod@dividend+1,w
  1461     0CF3  00F1               	movwf	?___lwmod+1
  1462     0CF4  0872               	movf	___lwmod@dividend,w
  1463     0CF5  00F0               	movwf	?___lwmod
  1464     0CF6                     l452:
  1465     0CF6  0008               	return
  1466     0CF7                     __end_of___lwmod:
  1467                           
  1468                           	psect	text4
  1469     0CF7                     __ptext4:	
  1470 ;; *************** function ___lwdiv *****************
  1471 ;; Defined at:
  1472 ;;		line 5 in file "C:\Program Files\Microchip\xc8\v3.10\pic\sources\c99\common\lwdiv.c"
  1473 ;; Parameters:    Size  Location     Type
  1474 ;;  divisor         2    0[COMMON] unsigned int 
  1475 ;;  dividend        2    2[COMMON] unsigned int 
  1476 ;; Auto vars:     Size  Location     Type
  1477 ;;  quotient        2    4[COMMON] unsigned int 
  1478 ;;  counter         1    6[COMMON] unsigned char 
  1479 ;; Return value:  Size  Location     Type
  1480 ;;                  2    0[COMMON] unsigned int 
  1481 ;; Registers used:
  1482 ;;		wreg, status,2, status,0
  1483 ;; Tracked objects:
  1484 ;;		On entry : 0/0
  1485 ;;		On exit  : 0/0
  1486 ;;		Unchanged: 0/0
  1487 ;; Data sizes:     COMMON   BANK0   BANK1   BANK3   BANK2
  1488 ;;      Params:         4       0       0       0       0
  1489 ;;      Locals:         3       0       0       0       0
  1490 ;;      Temps:          0       0       0       0       0
  1491 ;;      Totals:         7       0       0       0       0
  1492 ;;Total ram usage:        7 bytes
  1493 ;; Hardware stack levels used: 1
  1494 ;; This function calls:
  1495 ;;		Nothing
  1496 ;; This function is called by:
  1497 ;;		_intToString
  1498 ;; This function uses a non-reentrant model
  1499 ;;
  1500                           
  1501     0CF7                     ___lwdiv:	
  1502                           ;psect for function ___lwdiv
  1503                           
  1504     0CF7                     l1356:	
  1505                           ;incstack = 0
  1506                           ; Regs used in ___lwdiv: [wreg+status,2+status,0]
  1507                           
  1508     0CF7  01F4               	clrf	___lwdiv@quotient
  1509     0CF8  01F5               	clrf	___lwdiv@quotient+1
  1510     0CF9                     l1358:
  1511     0CF9  0870               	movf	___lwdiv@divisor,w
  1512     0CFA  0471               	iorwf	___lwdiv@divisor+1,w
  1513     0CFB  1903               	btfsc	3,2
  1514     0CFC  2CFE               	goto	u1611
  1515     0CFD  2CFF               	goto	u1610
  1516     0CFE                     u1611:
  1517     0CFE  2D34               	goto	l1378
  1518     0CFF                     u1610:
  1519     0CFF                     l1360:
  1520     0CFF  3001               	movlw	1
  1521     0D00  00F6               	movwf	___lwdiv@counter
  1522     0D01  2D0B               	goto	l1366
  1523     0D02                     l1362:
  1524     0D02  3001               	movlw	1
  1525     0D03                     u1625:
  1526     0D03  1003               	clrc
  1527     0D04  0DF0               	rlf	___lwdiv@divisor,f
  1528     0D05  0DF1               	rlf	___lwdiv@divisor+1,f
  1529     0D06  3EFF               	addlw	-1
  1530     0D07  1D03               	skipz
  1531     0D08  2D03               	goto	u1625
  1532     0D09                     l1364:
  1533     0D09  3001               	movlw	1
  1534     0D0A  07F6               	addwf	___lwdiv@counter,f
  1535     0D0B                     l1366:
  1536     0D0B  1FF1               	btfss	___lwdiv@divisor+1,7
  1537     0D0C  2D0E               	goto	u1631
  1538     0D0D  2D0F               	goto	u1630
  1539     0D0E                     u1631:
  1540     0D0E  2D02               	goto	l1362
  1541     0D0F                     u1630:
  1542     0D0F                     l1368:
  1543     0D0F  3001               	movlw	1
  1544     0D10                     u1645:
  1545     0D10  1003               	clrc
  1546     0D11  0DF4               	rlf	___lwdiv@quotient,f
  1547     0D12  0DF5               	rlf	___lwdiv@quotient+1,f
  1548     0D13  3EFF               	addlw	-1
  1549     0D14  1D03               	skipz
  1550     0D15  2D10               	goto	u1645
  1551     0D16  0871               	movf	___lwdiv@divisor+1,w
  1552     0D17  0273               	subwf	___lwdiv@dividend+1,w
  1553     0D18  1D03               	skipz
  1554     0D19  2D1C               	goto	u1655
  1555     0D1A  0870               	movf	___lwdiv@divisor,w
  1556     0D1B  0272               	subwf	___lwdiv@dividend,w
  1557     0D1C                     u1655:
  1558     0D1C  1C03               	skipc
  1559     0D1D  2D1F               	goto	u1651
  1560     0D1E  2D20               	goto	u1650
  1561     0D1F                     u1651:
  1562     0D1F  2D27               	goto	l1374
  1563     0D20                     u1650:
  1564     0D20                     l1370:
  1565     0D20  0870               	movf	___lwdiv@divisor,w
  1566     0D21  02F2               	subwf	___lwdiv@dividend,f
  1567     0D22  0871               	movf	___lwdiv@divisor+1,w
  1568     0D23  1C03               	skipc
  1569     0D24  03F3               	decf	___lwdiv@dividend+1,f
  1570     0D25  02F3               	subwf	___lwdiv@dividend+1,f
  1571     0D26                     l1372:
  1572     0D26  1474               	bsf	___lwdiv@quotient,0
  1573     0D27                     l1374:
  1574     0D27  3001               	movlw	1
  1575     0D28                     u1665:
  1576     0D28  1003               	clrc
  1577     0D29  0CF1               	rrf	___lwdiv@divisor+1,f
  1578     0D2A  0CF0               	rrf	___lwdiv@divisor,f
  1579     0D2B  3EFF               	addlw	-1
  1580     0D2C  1D03               	skipz
  1581     0D2D  2D28               	goto	u1665
  1582     0D2E                     l1376:
  1583     0D2E  3001               	movlw	1
  1584     0D2F  02F6               	subwf	___lwdiv@counter,f
  1585     0D30  1D03               	btfss	3,2
  1586     0D31  2D33               	goto	u1671
  1587     0D32  2D34               	goto	u1670
  1588     0D33                     u1671:
  1589     0D33  2D0F               	goto	l1368
  1590     0D34                     u1670:
  1591     0D34                     l1378:
  1592     0D34  0875               	movf	___lwdiv@quotient+1,w
  1593     0D35  00F1               	movwf	?___lwdiv+1
  1594     0D36  0874               	movf	___lwdiv@quotient,w
  1595     0D37  00F0               	movwf	?___lwdiv
  1596     0D38                     l442:
  1597     0D38  0008               	return
  1598     0D39                     __end_of___lwdiv:
  1599                           
  1600                           	psect	text5
  1601     0E60                     __ptext5:	
  1602 ;; *************** function ___xxtofl *****************
  1603 ;; Defined at:
  1604 ;;		line 10 in file "C:\Program Files\Microchip\xc8\v3.10\pic\sources\c99\common\xxtofl.c"
  1605 ;; Parameters:    Size  Location     Type
  1606 ;;  sign            1    wreg     unsigned char 
  1607 ;;  val             4    0[COMMON] long 
  1608 ;; Auto vars:     Size  Location     Type
  1609 ;;  sign            1    8[COMMON] unsigned char 
  1610 ;;  arg             4   10[COMMON] unsigned long 
  1611 ;;  exp             1    9[COMMON] unsigned char 
  1612 ;; Return value:  Size  Location     Type
  1613 ;;                  4    0[COMMON] unsigned char 
  1614 ;; Registers used:
  1615 ;;		wreg, status,2, status,0
  1616 ;; Tracked objects:
  1617 ;;		On entry : 0/0
  1618 ;;		On exit  : 0/0
  1619 ;;		Unchanged: 0/0
  1620 ;; Data sizes:     COMMON   BANK0   BANK1   BANK3   BANK2
  1621 ;;      Params:         4       0       0       0       0
  1622 ;;      Locals:         6       0       0       0       0
  1623 ;;      Temps:          4       0       0       0       0
  1624 ;;      Totals:        14       0       0       0       0
  1625 ;;Total ram usage:       14 bytes
  1626 ;; Hardware stack levels used: 1
  1627 ;; This function calls:
  1628 ;;		Nothing
  1629 ;; This function is called by:
  1630 ;;		_floatToString
  1631 ;;		_main
  1632 ;; This function uses a non-reentrant model
  1633 ;;
  1634                           
  1635     0E60                     ___xxtofl:	
  1636                           ;psect for function ___xxtofl
  1637                           
  1638                           
  1639                           ;incstack = 0
  1640                           ; Regs used in ___xxtofl: [wreg+status,2+status,0]
  1641                           ;___xxtofl@sign stored from wreg
  1642     0E60  00F8               	movwf	___xxtofl@sign
  1643     0E61                     l1832:
  1644     0E61  0878               	movf	___xxtofl@sign,w
  1645     0E62  1903               	btfsc	3,2
  1646     0E63  2E65               	goto	u2741
  1647     0E64  2E66               	goto	u2740
  1648     0E65                     u2741:
  1649     0E65  2E7A               	goto	l1838
  1650     0E66                     u2740:
  1651     0E66                     l1834:
  1652     0E66  1FF3               	btfss	___xxtofl@val+3,7
  1653     0E67  2E69               	goto	u2751
  1654     0E68  2E6A               	goto	u2750
  1655     0E69                     u2751:
  1656     0E69  2E7A               	goto	l1838
  1657     0E6A                     u2750:
  1658     0E6A                     l1836:
  1659     0E6A  0970               	comf	___xxtofl@val,w
  1660     0E6B  00FA               	movwf	___xxtofl@arg
  1661     0E6C  0971               	comf	___xxtofl@val+1,w
  1662     0E6D  00FB               	movwf	___xxtofl@arg+1
  1663     0E6E  0972               	comf	___xxtofl@val+2,w
  1664     0E6F  00FC               	movwf	___xxtofl@arg+2
  1665     0E70  0973               	comf	___xxtofl@val+3,w
  1666     0E71  00FD               	movwf	___xxtofl@arg+3
  1667     0E72  0AFA               	incf	___xxtofl@arg,f
  1668     0E73  1903               	skipnz
  1669     0E74  0AFB               	incf	___xxtofl@arg+1,f
  1670     0E75  1903               	skipnz
  1671     0E76  0AFC               	incf	___xxtofl@arg+2,f
  1672     0E77  1903               	skipnz
  1673     0E78  0AFD               	incf	___xxtofl@arg+3,f
  1674     0E79  2E82               	goto	l603
  1675     0E7A                     l1838:
  1676     0E7A  0873               	movf	___xxtofl@val+3,w
  1677     0E7B  00FD               	movwf	___xxtofl@arg+3
  1678     0E7C  0872               	movf	___xxtofl@val+2,w
  1679     0E7D  00FC               	movwf	___xxtofl@arg+2
  1680     0E7E  0871               	movf	___xxtofl@val+1,w
  1681     0E7F  00FB               	movwf	___xxtofl@arg+1
  1682     0E80  0870               	movf	___xxtofl@val,w
  1683     0E81  00FA               	movwf	___xxtofl@arg
  1684     0E82                     l603:
  1685     0E82  0873               	movf	___xxtofl@val+3,w
  1686     0E83  0472               	iorwf	___xxtofl@val+2,w
  1687     0E84  0471               	iorwf	___xxtofl@val+1,w
  1688     0E85  0470               	iorwf	___xxtofl@val,w
  1689     0E86  1D03               	skipz
  1690     0E87  2E89               	goto	u2761
  1691     0E88  2E8A               	goto	u2760
  1692     0E89                     u2761:
  1693     0E89  2E93               	goto	l604
  1694     0E8A                     u2760:
  1695     0E8A                     l1840:
  1696     0E8A  3000               	movlw	0
  1697     0E8B  00F3               	movwf	?___xxtofl+3
  1698     0E8C  3000               	movlw	0
  1699     0E8D  00F2               	movwf	?___xxtofl+2
  1700     0E8E  3000               	movlw	0
  1701     0E8F  00F1               	movwf	?___xxtofl+1
  1702     0E90  3000               	movlw	0
  1703     0E91  00F0               	movwf	?___xxtofl
  1704     0E92  2F13               	goto	l605
  1705     0E93                     l604:
  1706     0E93  3096               	movlw	150
  1707     0E94  00F9               	movwf	___xxtofl@exp
  1708     0E95  2EA1               	goto	l1846
  1709     0E96                     l1844:
  1710     0E96  3001               	movlw	1
  1711     0E97  07F9               	addwf	___xxtofl@exp,f
  1712     0E98  3001               	movlw	1
  1713     0E99                     u2775:
  1714     0E99  1003               	clrc
  1715     0E9A  0CFD               	rrf	___xxtofl@arg+3,f
  1716     0E9B  0CFC               	rrf	___xxtofl@arg+2,f
  1717     0E9C  0CFB               	rrf	___xxtofl@arg+1,f
  1718     0E9D  0CFA               	rrf	___xxtofl@arg,f
  1719     0E9E  3EFF               	addlw	-1
  1720     0E9F  1D03               	skipz
  1721     0EA0  2E99               	goto	u2775
  1722     0EA1                     l1846:
  1723     0EA1  30FE               	movlw	254
  1724     0EA2  057D               	andwf	___xxtofl@arg+3,w
  1725     0EA3  1D03               	btfss	3,2
  1726     0EA4  2EA6               	goto	u2781
  1727     0EA5  2EA7               	goto	u2780
  1728     0EA6                     u2781:
  1729     0EA6  2E96               	goto	l1844
  1730     0EA7                     u2780:
  1731     0EA7  2EC1               	goto	l609
  1732     0EA8                     l1848:
  1733     0EA8  3001               	movlw	1
  1734     0EA9  07F9               	addwf	___xxtofl@exp,f
  1735     0EAA                     l1850:
  1736     0EAA  3001               	movlw	1
  1737     0EAB  07FA               	addwf	___xxtofl@arg,f
  1738     0EAC  3000               	movlw	0
  1739     0EAD  1803               	skipnc
  1740     0EAE  3001               	movlw	1
  1741     0EAF  07FB               	addwf	___xxtofl@arg+1,f
  1742     0EB0  3000               	movlw	0
  1743     0EB1  1803               	skipnc
  1744     0EB2  3001               	movlw	1
  1745     0EB3  07FC               	addwf	___xxtofl@arg+2,f
  1746     0EB4  3000               	movlw	0
  1747     0EB5  1803               	skipnc
  1748     0EB6  3001               	movlw	1
  1749     0EB7  07FD               	addwf	___xxtofl@arg+3,f
  1750     0EB8                     l1852:
  1751     0EB8  3001               	movlw	1
  1752     0EB9                     u2795:
  1753     0EB9  1003               	clrc
  1754     0EBA  0CFD               	rrf	___xxtofl@arg+3,f
  1755     0EBB  0CFC               	rrf	___xxtofl@arg+2,f
  1756     0EBC  0CFB               	rrf	___xxtofl@arg+1,f
  1757     0EBD  0CFA               	rrf	___xxtofl@arg,f
  1758     0EBE  3EFF               	addlw	-1
  1759     0EBF  1D03               	skipz
  1760     0EC0  2EB9               	goto	u2795
  1761     0EC1                     l609:
  1762     0EC1  30FF               	movlw	255
  1763     0EC2  057D               	andwf	___xxtofl@arg+3,w
  1764     0EC3  1D03               	btfss	3,2
  1765     0EC4  2EC6               	goto	u2801
  1766     0EC5  2EC7               	goto	u2800
  1767     0EC6                     u2801:
  1768     0EC6  2EA8               	goto	l1848
  1769     0EC7                     u2800:
  1770     0EC7  2ED3               	goto	l1856
  1771     0EC8                     l1854:
  1772     0EC8  3001               	movlw	1
  1773     0EC9  02F9               	subwf	___xxtofl@exp,f
  1774     0ECA  3001               	movlw	1
  1775     0ECB  00F4               	movwf	??___xxtofl
  1776     0ECC                     u2815:
  1777     0ECC  1003               	clrc
  1778     0ECD  0DFA               	rlf	___xxtofl@arg,f
  1779     0ECE  0DFB               	rlf	___xxtofl@arg+1,f
  1780     0ECF  0DFC               	rlf	___xxtofl@arg+2,f
  1781     0ED0  0DFD               	rlf	___xxtofl@arg+3,f
  1782     0ED1  0BF4               	decfsz	??___xxtofl,f
  1783     0ED2  2ECC               	goto	u2815
  1784     0ED3                     l1856:
  1785     0ED3  1BFC               	btfsc	___xxtofl@arg+2,7
  1786     0ED4  2ED6               	goto	u2821
  1787     0ED5  2ED7               	goto	u2820
  1788     0ED6                     u2821:
  1789     0ED6  2EDD               	goto	l616
  1790     0ED7                     u2820:
  1791     0ED7                     l1858:
  1792     0ED7  3002               	movlw	2
  1793     0ED8  0279               	subwf	___xxtofl@exp,w
  1794     0ED9  1803               	skipnc
  1795     0EDA  2EDC               	goto	u2831
  1796     0EDB  2EDD               	goto	u2830
  1797     0EDC                     u2831:
  1798     0EDC  2EC8               	goto	l1854
  1799     0EDD                     u2830:
  1800     0EDD                     l616:
  1801     0EDD  1879               	btfsc	___xxtofl@exp,0
  1802     0EDE  2EE0               	goto	u2841
  1803     0EDF  2EE1               	goto	u2840
  1804     0EE0                     u2841:
  1805     0EE0  2EE9               	goto	l617
  1806     0EE1                     u2840:
  1807     0EE1                     l1860:
  1808     0EE1  30FF               	movlw	255
  1809     0EE2  05FA               	andwf	___xxtofl@arg,f
  1810     0EE3  30FF               	movlw	255
  1811     0EE4  05FB               	andwf	___xxtofl@arg+1,f
  1812     0EE5  307F               	movlw	127
  1813     0EE6  05FC               	andwf	___xxtofl@arg+2,f
  1814     0EE7  30FF               	movlw	255
  1815     0EE8  05FD               	andwf	___xxtofl@arg+3,f
  1816     0EE9                     l617:
  1817     0EE9  1003               	clrc
  1818     0EEA  0CF9               	rrf	___xxtofl@exp,f
  1819     0EEB                     l1862:
  1820     0EEB  0879               	movf	___xxtofl@exp,w
  1821     0EEC  00F4               	movwf	??___xxtofl
  1822     0EED  01F5               	clrf	??___xxtofl+1
  1823     0EEE  01F6               	clrf	??___xxtofl+2
  1824     0EEF  01F7               	clrf	??___xxtofl+3
  1825     0EF0  3018               	movlw	24
  1826     0EF1                     u2855:
  1827     0EF1  1003               	clrc
  1828     0EF2  0DF4               	rlf	??___xxtofl,f
  1829     0EF3  0DF5               	rlf	??___xxtofl+1,f
  1830     0EF4  0DF6               	rlf	??___xxtofl+2,f
  1831     0EF5  0DF7               	rlf	??___xxtofl+3,f
  1832     0EF6                     u2850:
  1833     0EF6  3EFF               	addlw	-1
  1834     0EF7  1D03               	skipz
  1835     0EF8  2EF1               	goto	u2855
  1836     0EF9  0874               	movf	??___xxtofl,w
  1837     0EFA  04FA               	iorwf	___xxtofl@arg,f
  1838     0EFB  0875               	movf	??___xxtofl+1,w
  1839     0EFC  04FB               	iorwf	___xxtofl@arg+1,f
  1840     0EFD  0876               	movf	??___xxtofl+2,w
  1841     0EFE  04FC               	iorwf	___xxtofl@arg+2,f
  1842     0EFF  0877               	movf	??___xxtofl+3,w
  1843     0F00  04FD               	iorwf	___xxtofl@arg+3,f
  1844     0F01                     l1864:
  1845     0F01  0878               	movf	___xxtofl@sign,w
  1846     0F02  1903               	btfsc	3,2
  1847     0F03  2F05               	goto	u2861
  1848     0F04  2F06               	goto	u2860
  1849     0F05                     u2861:
  1850     0F05  2F0B               	goto	l1870
  1851     0F06                     u2860:
  1852     0F06                     l1866:
  1853     0F06  1FF3               	btfss	___xxtofl@val+3,7
  1854     0F07  2F09               	goto	u2871
  1855     0F08  2F0A               	goto	u2870
  1856     0F09                     u2871:
  1857     0F09  2F0B               	goto	l1870
  1858     0F0A                     u2870:
  1859     0F0A                     l1868:
  1860     0F0A  17FD               	bsf	___xxtofl@arg+3,7
  1861     0F0B                     l1870:
  1862     0F0B  087D               	movf	___xxtofl@arg+3,w
  1863     0F0C  00F3               	movwf	?___xxtofl+3
  1864     0F0D  087C               	movf	___xxtofl@arg+2,w
  1865     0F0E  00F2               	movwf	?___xxtofl+2
  1866     0F0F  087B               	movf	___xxtofl@arg+1,w
  1867     0F10  00F1               	movwf	?___xxtofl+1
  1868     0F11  087A               	movf	___xxtofl@arg,w
  1869     0F12  00F0               	movwf	?___xxtofl
  1870     0F13                     l605:
  1871     0F13  0008               	return
  1872     0F14                     __end_of___xxtofl:
  1873                           
  1874                           	psect	text6
  1875     0D39                     __ptext6:	
  1876 ;; *************** function ___fltol *****************
  1877 ;; Defined at:
  1878 ;;		line 43 in file "C:\Program Files\Microchip\xc8\v3.10\pic\sources\c99\common\fltol.c"
  1879 ;; Parameters:    Size  Location     Type
  1880 ;;  f1              4   42[BANK0 ] unsigned char 
  1881 ;; Auto vars:     Size  Location     Type
  1882 ;;  exp1            1   51[BANK0 ] unsigned char 
  1883 ;;  sign1           1   50[BANK0 ] unsigned char 
  1884 ;; Return value:  Size  Location     Type
  1885 ;;                  4   42[BANK0 ] long 
  1886 ;; Registers used:
  1887 ;;		wreg, status,2, status,0
  1888 ;; Tracked objects:
  1889 ;;		On entry : 0/0
  1890 ;;		On exit  : 0/0
  1891 ;;		Unchanged: 0/0
  1892 ;; Data sizes:     COMMON   BANK0   BANK1   BANK3   BANK2
  1893 ;;      Params:         0       4       0       0       0
  1894 ;;      Locals:         0       2       0       0       0
  1895 ;;      Temps:          0       4       0       0       0
  1896 ;;      Totals:         0      10       0       0       0
  1897 ;;Total ram usage:       10 bytes
  1898 ;; Hardware stack levels used: 1
  1899 ;; This function calls:
  1900 ;;		Nothing
  1901 ;; This function is called by:
  1902 ;;		_floatToString
  1903 ;; This function uses a non-reentrant model
  1904 ;;
  1905                           
  1906     0D39                     ___fltol:	
  1907                           ;psect for function ___fltol
  1908                           
  1909     0D39                     l1648:	
  1910                           ;incstack = 0
  1911                           ; Regs used in ___fltol: [wreg+status,2+status,0]
  1912                           
  1913     0D39  1003               	clrc
  1914     0D3A  1283               	bcf	3,5	;RP0=0, select bank0
  1915     0D3B  1303               	bcf	3,6	;RP1=0, select bank0
  1916     0D3C  0D4C               	rlf	___fltol@f1+2,w
  1917     0D3D  0D4D               	rlf	___fltol@f1+3,w
  1918     0D3E  00D3               	movwf	___fltol@exp1
  1919     0D3F  0853               	movf	___fltol@exp1,w
  1920     0D40  1D03               	btfss	3,2
  1921     0D41  2D43               	goto	u2271
  1922     0D42  2D44               	goto	u2270
  1923     0D43                     u2271:
  1924     0D43  2D4D               	goto	l1654
  1925     0D44                     u2270:
  1926     0D44                     l1650:
  1927     0D44  3000               	movlw	0
  1928     0D45  00CD               	movwf	?___fltol+3
  1929     0D46  3000               	movlw	0
  1930     0D47  00CC               	movwf	?___fltol+2
  1931     0D48  3000               	movlw	0
  1932     0D49  00CB               	movwf	?___fltol+1
  1933     0D4A  3000               	movlw	0
  1934     0D4B  00CA               	movwf	?___fltol
  1935     0D4C  2DAE               	goto	l356
  1936     0D4D                     l1654:
  1937     0D4D  084A               	movf	___fltol@f1,w
  1938     0D4E  00CE               	movwf	??___fltol
  1939     0D4F  084B               	movf	___fltol@f1+1,w
  1940     0D50  00CF               	movwf	??___fltol+1
  1941     0D51  084C               	movf	___fltol@f1+2,w
  1942     0D52  00D0               	movwf	??___fltol+2
  1943     0D53  084D               	movf	___fltol@f1+3,w
  1944     0D54  00D1               	movwf	??___fltol+3
  1945     0D55  301F               	movlw	31
  1946     0D56                     u2285:
  1947     0D56  1003               	clrc
  1948     0D57  0CD1               	rrf	??___fltol+3,f
  1949     0D58  0CD0               	rrf	??___fltol+2,f
  1950     0D59  0CCF               	rrf	??___fltol+1,f
  1951     0D5A  0CCE               	rrf	??___fltol,f
  1952     0D5B                     u2280:
  1953     0D5B  3EFF               	addlw	-1
  1954     0D5C  1D03               	skipz
  1955     0D5D  2D56               	goto	u2285
  1956     0D5E  084E               	movf	??___fltol,w
  1957     0D5F  00D2               	movwf	___fltol@sign1
  1958     0D60                     l1656:
  1959     0D60  17CC               	bsf	___fltol@f1+2,7
  1960     0D61                     l1658:
  1961     0D61  30FF               	movlw	255
  1962     0D62  05CA               	andwf	___fltol@f1,f
  1963     0D63  30FF               	movlw	255
  1964     0D64  05CB               	andwf	___fltol@f1+1,f
  1965     0D65  30FF               	movlw	255
  1966     0D66  05CC               	andwf	___fltol@f1+2,f
  1967     0D67  3000               	movlw	0
  1968     0D68  05CD               	andwf	___fltol@f1+3,f
  1969     0D69                     l1660:
  1970     0D69  3096               	movlw	150
  1971     0D6A  02D3               	subwf	___fltol@exp1,f
  1972     0D6B                     l1662:
  1973     0D6B  1FD3               	btfss	___fltol@exp1,7
  1974     0D6C  2D6E               	goto	u2291
  1975     0D6D  2D6F               	goto	u2290
  1976     0D6E                     u2291:
  1977     0D6E  2D87               	goto	l1672
  1978     0D6F                     u2290:
  1979     0D6F                     l1664:
  1980     0D6F  0853               	movf	___fltol@exp1,w
  1981     0D70  3A80               	xorlw	128
  1982     0D71  3E97               	addlw	151
  1983     0D72  1803               	skipnc
  1984     0D73  2D75               	goto	u2301
  1985     0D74  2D76               	goto	u2300
  1986     0D75                     u2301:
  1987     0D75  2D77               	goto	l1670
  1988     0D76                     u2300:
  1989     0D76  2D44               	goto	l1650
  1990     0D77                     l1670:
  1991     0D77  3001               	movlw	1
  1992     0D78                     u2315:
  1993     0D78  1003               	clrc
  1994     0D79  0CCD               	rrf	___fltol@f1+3,f
  1995     0D7A  0CCC               	rrf	___fltol@f1+2,f
  1996     0D7B  0CCB               	rrf	___fltol@f1+1,f
  1997     0D7C  0CCA               	rrf	___fltol@f1,f
  1998     0D7D  3EFF               	addlw	-1
  1999     0D7E  1D03               	skipz
  2000     0D7F  2D78               	goto	u2315
  2001     0D80  3001               	movlw	1
  2002     0D81  07D3               	addwf	___fltol@exp1,f
  2003     0D82  1D03               	btfss	3,2
  2004     0D83  2D85               	goto	u2321
  2005     0D84  2D86               	goto	u2320
  2006     0D85                     u2321:
  2007     0D85  2D77               	goto	l1670
  2008     0D86                     u2320:
  2009     0D86  2D9E               	goto	l1680
  2010     0D87                     l1672:
  2011     0D87  3020               	movlw	32
  2012     0D88  0253               	subwf	___fltol@exp1,w
  2013     0D89  1C03               	skipc
  2014     0D8A  2D8C               	goto	u2331
  2015     0D8B  2D8D               	goto	u2330
  2016     0D8C                     u2331:
  2017     0D8C  2D99               	goto	l363
  2018     0D8D                     u2330:
  2019     0D8D  2D44               	goto	l1650
  2020     0D8E                     l1678:
  2021     0D8E  3001               	movlw	1
  2022     0D8F  00CE               	movwf	??___fltol
  2023     0D90                     u2345:
  2024     0D90  1003               	clrc
  2025     0D91  0DCA               	rlf	___fltol@f1,f
  2026     0D92  0DCB               	rlf	___fltol@f1+1,f
  2027     0D93  0DCC               	rlf	___fltol@f1+2,f
  2028     0D94  0DCD               	rlf	___fltol@f1+3,f
  2029     0D95  0BCE               	decfsz	??___fltol,f
  2030     0D96  2D90               	goto	u2345
  2031     0D97  3001               	movlw	1
  2032     0D98  02D3               	subwf	___fltol@exp1,f
  2033     0D99                     l363:
  2034     0D99  0853               	movf	___fltol@exp1,w
  2035     0D9A  1D03               	btfss	3,2
  2036     0D9B  2D9D               	goto	u2351
  2037     0D9C  2D9E               	goto	u2350
  2038     0D9D                     u2351:
  2039     0D9D  2D8E               	goto	l1678
  2040     0D9E                     u2350:
  2041     0D9E                     l1680:
  2042     0D9E  0852               	movf	___fltol@sign1,w
  2043     0D9F  1903               	btfsc	3,2
  2044     0DA0  2DA2               	goto	u2361
  2045     0DA1  2DA3               	goto	u2360
  2046     0DA2                     u2361:
  2047     0DA2  2DAE               	goto	l366
  2048     0DA3                     u2360:
  2049     0DA3                     l1682:
  2050     0DA3  09CA               	comf	___fltol@f1,f
  2051     0DA4  09CB               	comf	___fltol@f1+1,f
  2052     0DA5  09CC               	comf	___fltol@f1+2,f
  2053     0DA6  09CD               	comf	___fltol@f1+3,f
  2054     0DA7  0ACA               	incf	___fltol@f1,f
  2055     0DA8  1903               	skipnz
  2056     0DA9  0ACB               	incf	___fltol@f1+1,f
  2057     0DAA  1903               	skipnz
  2058     0DAB  0ACC               	incf	___fltol@f1+2,f
  2059     0DAC  1903               	skipnz
  2060     0DAD  0ACD               	incf	___fltol@f1+3,f
  2061     0DAE                     l366:
  2062     0DAE                     l356:
  2063     0DAE  0008               	return
  2064     0DAF                     __end_of___fltol:
  2065                           
  2066                           	psect	text7
  2067     0C27                     __ptext7:	
  2068 ;; *************** function ___flsub *****************
  2069 ;; Defined at:
  2070 ;;		line 242 in file "C:\Program Files\Microchip\xc8\v3.10\pic\sources\c99\common\sprcadd.c"
  2071 ;; Parameters:    Size  Location     Type
  2072 ;;  a               4    8[BANK0 ] long 
  2073 ;;  b               4   12[BANK0 ] long 
  2074 ;; Auto vars:     Size  Location     Type
  2075 ;;		None
  2076 ;; Return value:  Size  Location     Type
  2077 ;;                  4    8[BANK0 ] long 
  2078 ;; Registers used:
  2079 ;;		wreg, status,2, status,0, pclath, btemp1, cstack
  2080 ;; Tracked objects:
  2081 ;;		On entry : 0/0
  2082 ;;		On exit  : 0/0
  2083 ;;		Unchanged: 0/0
  2084 ;; Data sizes:     COMMON   BANK0   BANK1   BANK3   BANK2
  2085 ;;      Params:         0       8       0       0       0
  2086 ;;      Locals:         0       0       0       0       0
  2087 ;;      Temps:          0       0       0       0       0
  2088 ;;      Totals:         0       8       0       0       0
  2089 ;;Total ram usage:        8 bytes
  2090 ;; Hardware stack levels used: 1
  2091 ;; Hardware stack levels required when called: 1
  2092 ;; This function calls:
  2093 ;;		___fladd
  2094 ;; This function is called by:
  2095 ;;		_floatToString
  2096 ;; This function uses a non-reentrant model
  2097 ;;
  2098                           
  2099     0C27                     ___flsub:	
  2100                           ;psect for function ___flsub
  2101                           
  2102     0C27                     l1684:	
  2103                           ;incstack = 0
  2104                           ; Regs used in ___flsub: [wreg+status,2+status,0+pclath+btemp1+cstack]
  2105                           
  2106     0C27  3080               	movlw	128
  2107     0C28  1283               	bcf	3,5	;RP0=0, select bank0
  2108     0C29  1303               	bcf	3,6	;RP1=0, select bank0
  2109     0C2A  06AB               	xorwf	___flsub@a+3,f
  2110     0C2B                     l1686:
  2111     0C2B  082F               	movf	___flsub@b+3,w
  2112     0C2C  00F3               	movwf	___fladd@b+3
  2113     0C2D  082E               	movf	___flsub@b+2,w
  2114     0C2E  00F2               	movwf	___fladd@b+2
  2115     0C2F  082D               	movf	___flsub@b+1,w
  2116     0C30  00F1               	movwf	___fladd@b+1
  2117     0C31  082C               	movf	___flsub@b,w
  2118     0C32  00F0               	movwf	___fladd@b
  2119     0C33  082B               	movf	___flsub@a+3,w
  2120     0C34  00F7               	movwf	___fladd@a+3
  2121     0C35  082A               	movf	___flsub@a+2,w
  2122     0C36  00F6               	movwf	___fladd@a+2
  2123     0C37  0829               	movf	___flsub@a+1,w
  2124     0C38  00F5               	movwf	___fladd@a+1
  2125     0C39  0828               	movf	___flsub@a,w
  2126     0C3A  00F4               	movwf	___fladd@a
  2127     0C3B  120A  118A  225E  120A  158A  	fcall	___fladd
  2128     0C40  0873               	movf	?___fladd+3,w
  2129     0C41  1283               	bcf	3,5	;RP0=0, select bank0
  2130     0C42  1303               	bcf	3,6	;RP1=0, select bank0
  2131     0C43  00AB               	movwf	?___flsub+3
  2132     0C44  0872               	movf	?___fladd+2,w
  2133     0C45  00AA               	movwf	?___flsub+2
  2134     0C46  0871               	movf	?___fladd+1,w
  2135     0C47  00A9               	movwf	?___flsub+1
  2136     0C48  0870               	movf	?___fladd,w
  2137     0C49  00A8               	movwf	?___flsub
  2138     0C4A                     l509:
  2139     0C4A  0008               	return
  2140     0C4B                     __end_of___flsub:
  2141                           
  2142                           	psect	text8
  2143     025E                     __ptext8:	
  2144 ;; *************** function ___fladd *****************
  2145 ;; Defined at:
  2146 ;;		line 10 in file "C:\Program Files\Microchip\xc8\v3.10\pic\sources\c99\common\sprcadd.c"
  2147 ;; Parameters:    Size  Location     Type
  2148 ;;  b               4    0[COMMON] long 
  2149 ;;  a               4    4[COMMON] long 
  2150 ;; Auto vars:     Size  Location     Type
  2151 ;;  grs             1   11[COMMON] unsigned char 
  2152 ;;  bexp            1   10[COMMON] unsigned char 
  2153 ;;  aexp            1    9[COMMON] unsigned char 
  2154 ;;  signs           1    8[COMMON] unsigned char 
  2155 ;; Return value:  Size  Location     Type
  2156 ;;                  4    0[COMMON] unsigned char 
  2157 ;; Registers used:
  2158 ;;		wreg, status,2, status,0, btemp1
  2159 ;; Tracked objects:
  2160 ;;		On entry : 0/0
  2161 ;;		On exit  : 0/0
  2162 ;;		Unchanged: 0/0
  2163 ;; Data sizes:     COMMON   BANK0   BANK1   BANK3   BANK2
  2164 ;;      Params:         8       0       0       0       0
  2165 ;;      Locals:         4       0       0       0       0
  2166 ;;      Temps:          0       8       0       0       0
  2167 ;;      Totals:        12       8       0       0       0
  2168 ;;Total ram usage:       20 bytes
  2169 ;; Hardware stack levels used: 1
  2170 ;; This function calls:
  2171 ;;		Nothing
  2172 ;; This function is called by:
  2173 ;;		___flsub
  2174 ;; This function uses a non-reentrant model
  2175 ;;
  2176                           
  2177     025E                     ___fladd:	
  2178                           ;psect for function ___fladd
  2179                           
  2180     025E                     l1404:	
  2181                           ;incstack = 0
  2182                           ; Regs used in ___fladd: [wreg+status,2+status,0+btemp1]
  2183                           
  2184     025E  0873               	movf	___fladd@b+3,w
  2185     025F  00F8               	movwf	___fladd@signs
  2186     0260                     l1406:
  2187     0260  3080               	movlw	128
  2188     0261  05F8               	andwf	___fladd@signs,f
  2189     0262                     l1408:
  2190     0262  0873               	movf	___fladd@b+3,w
  2191     0263  1283               	bcf	3,5	;RP0=0, select bank0
  2192     0264  1303               	bcf	3,6	;RP1=0, select bank0
  2193     0265  00A0               	movwf	??___fladd
  2194     0266  0720               	addwf	??___fladd,w
  2195     0267  00FA               	movwf	___fladd@bexp
  2196     0268                     l1410:
  2197     0268  1FF2               	btfss	___fladd@b+2,7
  2198     0269  2A6B               	goto	u1741
  2199     026A  2A6C               	goto	u1740
  2200     026B                     u1741:
  2201     026B  2A6D               	goto	l1414
  2202     026C                     u1740:
  2203     026C                     l1412:
  2204     026C  147A               	bsf	___fladd@bexp,0
  2205     026D                     l1414:
  2206     026D  087A               	movf	___fladd@bexp,w
  2207     026E  1903               	btfsc	3,2
  2208     026F  2A71               	goto	u1751
  2209     0270  2A72               	goto	u1750
  2210     0271                     u1751:
  2211     0271  2A82               	goto	l1424
  2212     0272                     u1750:
  2213     0272                     l1416:
  2214     0272  0A7A               	incf	___fladd@bexp,w
  2215     0273  1D03               	btfss	3,2
  2216     0274  2A76               	goto	u1761
  2217     0275  2A77               	goto	u1760
  2218     0276                     u1761:
  2219     0276  2A7F               	goto	l1420
  2220     0277                     u1760:
  2221     0277                     l1418:
  2222     0277  3000               	movlw	0
  2223     0278  00F3               	movwf	___fladd@b+3
  2224     0279  3000               	movlw	0
  2225     027A  00F2               	movwf	___fladd@b+2
  2226     027B  3000               	movlw	0
  2227     027C  00F1               	movwf	___fladd@b+1
  2228     027D  3000               	movlw	0
  2229     027E  00F0               	movwf	___fladd@b
  2230     027F                     l1420:
  2231     027F  17F2               	bsf	___fladd@b+2,7
  2232     0280                     l1422:
  2233     0280  01F3               	clrf	___fladd@b+3
  2234     0281  2A8A               	goto	l458
  2235     0282                     l1424:
  2236     0282  3000               	movlw	0
  2237     0283  00F3               	movwf	___fladd@b+3
  2238     0284  3000               	movlw	0
  2239     0285  00F2               	movwf	___fladd@b+2
  2240     0286  3000               	movlw	0
  2241     0287  00F1               	movwf	___fladd@b+1
  2242     0288  3000               	movlw	0
  2243     0289  00F0               	movwf	___fladd@b
  2244     028A                     l458:
  2245     028A  0877               	movf	___fladd@a+3,w
  2246     028B  00F9               	movwf	___fladd@aexp
  2247     028C                     l1426:
  2248     028C  3080               	movlw	128
  2249     028D  05F9               	andwf	___fladd@aexp,f
  2250     028E                     l1428:
  2251     028E  0879               	movf	___fladd@aexp,w
  2252     028F  0678               	xorwf	___fladd@signs,w
  2253     0290  1903               	skipnz
  2254     0291  2A93               	goto	u1771
  2255     0292  2A94               	goto	u1770
  2256     0293                     u1771:
  2257     0293  2A95               	goto	l1432
  2258     0294                     u1770:
  2259     0294                     l1430:
  2260     0294  1778               	bsf	___fladd@signs,6
  2261     0295                     l1432:
  2262     0295  0877               	movf	___fladd@a+3,w
  2263     0296  00A0               	movwf	??___fladd
  2264     0297  0720               	addwf	??___fladd,w
  2265     0298  00F9               	movwf	___fladd@aexp
  2266     0299                     l1434:
  2267     0299  1FF6               	btfss	___fladd@a+2,7
  2268     029A  2A9C               	goto	u1781
  2269     029B  2A9D               	goto	u1780
  2270     029C                     u1781:
  2271     029C  2A9E               	goto	l1438
  2272     029D                     u1780:
  2273     029D                     l1436:
  2274     029D  1479               	bsf	___fladd@aexp,0
  2275     029E                     l1438:
  2276     029E  0879               	movf	___fladd@aexp,w
  2277     029F  1903               	btfsc	3,2
  2278     02A0  2AA2               	goto	u1791
  2279     02A1  2AA3               	goto	u1790
  2280     02A2                     u1791:
  2281     02A2  2AB3               	goto	l1448
  2282     02A3                     u1790:
  2283     02A3                     l1440:
  2284     02A3  0A79               	incf	___fladd@aexp,w
  2285     02A4  1D03               	btfss	3,2
  2286     02A5  2AA7               	goto	u1801
  2287     02A6  2AA8               	goto	u1800
  2288     02A7                     u1801:
  2289     02A7  2AB0               	goto	l1444
  2290     02A8                     u1800:
  2291     02A8                     l1442:
  2292     02A8  3000               	movlw	0
  2293     02A9  00F7               	movwf	___fladd@a+3
  2294     02AA  3000               	movlw	0
  2295     02AB  00F6               	movwf	___fladd@a+2
  2296     02AC  3000               	movlw	0
  2297     02AD  00F5               	movwf	___fladd@a+1
  2298     02AE  3000               	movlw	0
  2299     02AF  00F4               	movwf	___fladd@a
  2300     02B0                     l1444:
  2301     02B0  17F6               	bsf	___fladd@a+2,7
  2302     02B1                     l1446:
  2303     02B1  01F7               	clrf	___fladd@a+3
  2304     02B2  2ABB               	goto	l463
  2305     02B3                     l1448:
  2306     02B3  3000               	movlw	0
  2307     02B4  00F7               	movwf	___fladd@a+3
  2308     02B5  3000               	movlw	0
  2309     02B6  00F6               	movwf	___fladd@a+2
  2310     02B7  3000               	movlw	0
  2311     02B8  00F5               	movwf	___fladd@a+1
  2312     02B9  3000               	movlw	0
  2313     02BA  00F4               	movwf	___fladd@a
  2314     02BB                     l463:
  2315     02BB  087A               	movf	___fladd@bexp,w
  2316     02BC  0279               	subwf	___fladd@aexp,w
  2317     02BD  1803               	skipnc
  2318     02BE  2AC0               	goto	u1811
  2319     02BF  2AC1               	goto	u1810
  2320     02C0                     u1811:
  2321     02C0  2AE5               	goto	l1484
  2322     02C1                     u1810:
  2323     02C1                     l1450:
  2324     02C1  1F78               	btfss	___fladd@signs,6
  2325     02C2  2AC4               	goto	u1821
  2326     02C3  2AC5               	goto	u1820
  2327     02C4                     u1821:
  2328     02C4  2AC7               	goto	l1454
  2329     02C5                     u1820:
  2330     02C5                     l1452:
  2331     02C5  3080               	movlw	128
  2332     02C6  06F8               	xorwf	___fladd@signs,f
  2333     02C7                     l1454:
  2334     02C7  087A               	movf	___fladd@bexp,w
  2335     02C8  00FB               	movwf	___fladd@grs
  2336     02C9                     l1456:
  2337     02C9  0879               	movf	___fladd@aexp,w
  2338     02CA  00FA               	movwf	___fladd@bexp
  2339     02CB                     l1458:
  2340     02CB  087B               	movf	___fladd@grs,w
  2341     02CC  00F9               	movwf	___fladd@aexp
  2342     02CD                     l1460:
  2343     02CD  0870               	movf	___fladd@b,w
  2344     02CE  00FB               	movwf	___fladd@grs
  2345     02CF                     l1462:
  2346     02CF  0874               	movf	___fladd@a,w
  2347     02D0  00F0               	movwf	___fladd@b
  2348     02D1                     l1464:
  2349     02D1  087B               	movf	___fladd@grs,w
  2350     02D2  00F4               	movwf	___fladd@a
  2351     02D3                     l1466:
  2352     02D3  0871               	movf	___fladd@b+1,w
  2353     02D4  00FB               	movwf	___fladd@grs
  2354     02D5                     l1468:
  2355     02D5  0875               	movf	___fladd@a+1,w
  2356     02D6  00F1               	movwf	___fladd@b+1
  2357     02D7                     l1470:
  2358     02D7  087B               	movf	___fladd@grs,w
  2359     02D8  00F5               	movwf	___fladd@a+1
  2360     02D9                     l1472:
  2361     02D9  0872               	movf	___fladd@b+2,w
  2362     02DA  00FB               	movwf	___fladd@grs
  2363     02DB                     l1474:
  2364     02DB  0876               	movf	___fladd@a+2,w
  2365     02DC  00F2               	movwf	___fladd@b+2
  2366     02DD                     l1476:
  2367     02DD  087B               	movf	___fladd@grs,w
  2368     02DE  00F6               	movwf	___fladd@a+2
  2369     02DF                     l1478:
  2370     02DF  0873               	movf	___fladd@b+3,w
  2371     02E0  00FB               	movwf	___fladd@grs
  2372     02E1                     l1480:
  2373     02E1  0877               	movf	___fladd@a+3,w
  2374     02E2  00F3               	movwf	___fladd@b+3
  2375     02E3                     l1482:
  2376     02E3  087B               	movf	___fladd@grs,w
  2377     02E4  00F7               	movwf	___fladd@a+3
  2378     02E5                     l1484:
  2379     02E5  01FB               	clrf	___fladd@grs
  2380     02E6                     l1486:
  2381     02E6  0879               	movf	___fladd@aexp,w
  2382     02E7  00A0               	movwf	??___fladd
  2383     02E8  01A1               	clrf	??___fladd+1
  2384     02E9  0821               	movf	??___fladd+1,w
  2385     02EA  00A3               	movwf	??___fladd+3
  2386     02EB  087A               	movf	___fladd@bexp,w
  2387     02EC  0220               	subwf	??___fladd,w
  2388     02ED  00A2               	movwf	??___fladd+2
  2389     02EE  1C03               	skipc
  2390     02EF  03A3               	decf	??___fladd+3,f
  2391     02F0  0823               	movf	??___fladd+3,w
  2392     02F1  3A80               	xorlw	128
  2393     02F2  00FF               	movwf	btemp1
  2394     02F3  3080               	movlw	128
  2395     02F4  027F               	subwf	btemp1,w
  2396     02F5  1D03               	skipz
  2397     02F6  2AF9               	goto	u1835
  2398     02F7  301A               	movlw	26
  2399     02F8  0222               	subwf	??___fladd+2,w
  2400     02F9                     u1835:
  2401     02F9  1C03               	skipc
  2402     02FA  2AFC               	goto	u1831
  2403     02FB  2AFD               	goto	u1830
  2404     02FC                     u1831:
  2405     02FC  2B34               	goto	l1502
  2406     02FD                     u1830:
  2407     02FD                     l1488:
  2408     02FD  0873               	movf	___fladd@b+3,w
  2409     02FE  0472               	iorwf	___fladd@b+2,w
  2410     02FF  0471               	iorwf	___fladd@b+1,w
  2411     0300  0470               	iorwf	___fladd@b,w
  2412     0301  1D03               	skipz
  2413     0302  2B04               	goto	u1841
  2414     0303  2B06               	goto	u1840
  2415     0304                     u1841:
  2416     0304  3001               	movlw	1
  2417     0305  2B07               	goto	u1850
  2418     0306                     u1840:
  2419     0306  3000               	movlw	0
  2420     0307                     u1850:
  2421     0307  00FB               	movwf	___fladd@grs
  2422     0308  3000               	movlw	0
  2423     0309  00F3               	movwf	___fladd@b+3
  2424     030A  3000               	movlw	0
  2425     030B  00F2               	movwf	___fladd@b+2
  2426     030C  3000               	movlw	0
  2427     030D  00F1               	movwf	___fladd@b+1
  2428     030E  3000               	movlw	0
  2429     030F  00F0               	movwf	___fladd@b
  2430     0310  0879               	movf	___fladd@aexp,w
  2431     0311  00FA               	movwf	___fladd@bexp
  2432     0312  2B3A               	goto	l467
  2433     0313                     l469:
  2434     0313  1C7B               	btfss	___fladd@grs,0
  2435     0314  2B16               	goto	u1861
  2436     0315  2B17               	goto	u1860
  2437     0316                     u1861:
  2438     0316  2B20               	goto	l1492
  2439     0317                     u1860:
  2440     0317                     l1490:
  2441     0317  087B               	movf	___fladd@grs,w
  2442     0318  1283               	bcf	3,5	;RP0=0, select bank0
  2443     0319  1303               	bcf	3,6	;RP1=0, select bank0
  2444     031A  00A0               	movwf	??___fladd
  2445     031B  1003               	clrc
  2446     031C  0C20               	rrf	??___fladd,w
  2447     031D  3801               	iorlw	1
  2448     031E  00FB               	movwf	___fladd@grs
  2449     031F  2B22               	goto	l1494
  2450     0320                     l1492:
  2451     0320  1003               	clrc
  2452     0321  0CFB               	rrf	___fladd@grs,f
  2453     0322                     l1494:
  2454     0322  1C70               	btfss	___fladd@b,0
  2455     0323  2B25               	goto	u1871
  2456     0324  2B26               	goto	u1870
  2457     0325                     u1871:
  2458     0325  2B27               	goto	l1498
  2459     0326                     u1870:
  2460     0326                     l1496:
  2461     0326  17FB               	bsf	___fladd@grs,7
  2462     0327                     l1498:
  2463     0327  3001               	movlw	1
  2464     0328  1283               	bcf	3,5	;RP0=0, select bank0
  2465     0329  1303               	bcf	3,6	;RP1=0, select bank0
  2466     032A  00A0               	movwf	??___fladd
  2467     032B                     u1885:
  2468     032B  0D73               	rlf	___fladd@b+3,w
  2469     032C  0CF3               	rrf	___fladd@b+3,f
  2470     032D  0CF2               	rrf	___fladd@b+2,f
  2471     032E  0CF1               	rrf	___fladd@b+1,f
  2472     032F  0CF0               	rrf	___fladd@b,f
  2473     0330  0BA0               	decfsz	??___fladd& (0+127),f
  2474     0331  2B2B               	goto	u1885
  2475     0332                     l1500:
  2476     0332  3001               	movlw	1
  2477     0333  07FA               	addwf	___fladd@bexp,f
  2478     0334                     l1502:
  2479     0334  0879               	movf	___fladd@aexp,w
  2480     0335  027A               	subwf	___fladd@bexp,w
  2481     0336  1C03               	skipc
  2482     0337  2B39               	goto	u1891
  2483     0338  2B3A               	goto	u1890
  2484     0339                     u1891:
  2485     0339  2B13               	goto	l469
  2486     033A                     u1890:
  2487     033A                     l467:
  2488     033A  1B78               	btfsc	___fladd@signs,6
  2489     033B  2B3D               	goto	u1901
  2490     033C  2B3E               	goto	u1900
  2491     033D                     u1901:
  2492     033D  2B89               	goto	l1528
  2493     033E                     u1900:
  2494     033E                     l1504:
  2495     033E  087A               	movf	___fladd@bexp,w
  2496     033F  1D03               	btfss	3,2
  2497     0340  2B42               	goto	u1911
  2498     0341  2B43               	goto	u1910
  2499     0342                     u1911:
  2500     0342  2B4C               	goto	l1510
  2501     0343                     u1910:
  2502     0343                     l1506:
  2503     0343  3000               	movlw	0
  2504     0344  00F3               	movwf	?___fladd+3
  2505     0345  3000               	movlw	0
  2506     0346  00F2               	movwf	?___fladd+2
  2507     0347  3000               	movlw	0
  2508     0348  00F1               	movwf	?___fladd+1
  2509     0349  3000               	movlw	0
  2510     034A  00F0               	movwf	?___fladd
  2511     034B  2CB9               	goto	l476
  2512     034C                     l1510:
  2513     034C  0874               	movf	___fladd@a,w
  2514     034D  07F0               	addwf	___fladd@b,f
  2515     034E  0875               	movf	___fladd@a+1,w
  2516     034F  1103               	clrz
  2517     0350  1803               	skipnc
  2518     0351  3E01               	addlw	1
  2519     0352  1903               	skipnz
  2520     0353  2B55               	goto	u1921
  2521     0354  07F1               	addwf	___fladd@b+1,f
  2522     0355                     u1921:
  2523     0355  0876               	movf	___fladd@a+2,w
  2524     0356  1103               	clrz
  2525     0357  1803               	skipnc
  2526     0358  3E01               	addlw	1
  2527     0359  1903               	skipnz
  2528     035A  2B5C               	goto	u1922
  2529     035B  07F2               	addwf	___fladd@b+2,f
  2530     035C                     u1922:
  2531     035C  0877               	movf	___fladd@a+3,w
  2532     035D  1103               	clrz
  2533     035E  1803               	skipnc
  2534     035F  3E01               	addlw	1
  2535     0360  1903               	skipnz
  2536     0361  2B63               	goto	u1923
  2537     0362  07F3               	addwf	___fladd@b+3,f
  2538     0363                     u1923:
  2539     0363                     l1512:
  2540     0363  1C73               	btfss	___fladd@b+3,0
  2541     0364  2B66               	goto	u1931
  2542     0365  2B67               	goto	u1930
  2543     0366                     u1931:
  2544     0366  2C41               	goto	l1564
  2545     0367                     u1930:
  2546     0367                     l1514:
  2547     0367  1C7B               	btfss	___fladd@grs,0
  2548     0368  2B6A               	goto	u1941
  2549     0369  2B6B               	goto	u1940
  2550     036A                     u1941:
  2551     036A  2B74               	goto	l1518
  2552     036B                     u1940:
  2553     036B                     l1516:
  2554     036B  087B               	movf	___fladd@grs,w
  2555     036C  1283               	bcf	3,5	;RP0=0, select bank0
  2556     036D  1303               	bcf	3,6	;RP1=0, select bank0
  2557     036E  00A0               	movwf	??___fladd
  2558     036F  1003               	clrc
  2559     0370  0C20               	rrf	??___fladd,w
  2560     0371  3801               	iorlw	1
  2561     0372  00FB               	movwf	___fladd@grs
  2562     0373  2B76               	goto	l1520
  2563     0374                     l1518:
  2564     0374  1003               	clrc
  2565     0375  0CFB               	rrf	___fladd@grs,f
  2566     0376                     l1520:
  2567     0376  1C70               	btfss	___fladd@b,0
  2568     0377  2B79               	goto	u1951
  2569     0378  2B7A               	goto	u1950
  2570     0379                     u1951:
  2571     0379  2B7B               	goto	l1524
  2572     037A                     u1950:
  2573     037A                     l1522:
  2574     037A  17FB               	bsf	___fladd@grs,7
  2575     037B                     l1524:
  2576     037B  3001               	movlw	1
  2577     037C  1283               	bcf	3,5	;RP0=0, select bank0
  2578     037D  1303               	bcf	3,6	;RP1=0, select bank0
  2579     037E  00A0               	movwf	??___fladd
  2580     037F                     u1965:
  2581     037F  0D73               	rlf	___fladd@b+3,w
  2582     0380  0CF3               	rrf	___fladd@b+3,f
  2583     0381  0CF2               	rrf	___fladd@b+2,f
  2584     0382  0CF1               	rrf	___fladd@b+1,f
  2585     0383  0CF0               	rrf	___fladd@b,f
  2586     0384  0BA0               	decfsz	??___fladd& (0+127),f
  2587     0385  2B7F               	goto	u1965
  2588     0386                     l1526:
  2589     0386  3001               	movlw	1
  2590     0387  07FA               	addwf	___fladd@bexp,f
  2591     0388  2C41               	goto	l1564
  2592     0389                     l1528:
  2593     0389  0873               	movf	___fladd@b+3,w
  2594     038A  3A80               	xorlw	128
  2595     038B  00FF               	movwf	btemp1
  2596     038C  0877               	movf	___fladd@a+3,w
  2597     038D  3A80               	xorlw	128
  2598     038E  027F               	subwf	btemp1,w
  2599     038F  1D03               	skipz
  2600     0390  2B9B               	goto	u1973
  2601     0391  0876               	movf	___fladd@a+2,w
  2602     0392  0272               	subwf	___fladd@b+2,w
  2603     0393  1D03               	skipz
  2604     0394  2B9B               	goto	u1973
  2605     0395  0875               	movf	___fladd@a+1,w
  2606     0396  0271               	subwf	___fladd@b+1,w
  2607     0397  1D03               	skipz
  2608     0398  2B9B               	goto	u1973
  2609     0399  0874               	movf	___fladd@a,w
  2610     039A  0270               	subwf	___fladd@b,w
  2611     039B                     u1973:
  2612     039B  1803               	skipnc
  2613     039C  2B9E               	goto	u1971
  2614     039D  2B9F               	goto	u1970
  2615     039E                     u1971:
  2616     039E  2BF8               	goto	l1540
  2617     039F                     u1970:
  2618     039F                     l1530:
  2619     039F  30FF               	movlw	255
  2620     03A0  1283               	bcf	3,5	;RP0=0, select bank0
  2621     03A1  1303               	bcf	3,6	;RP1=0, select bank0
  2622     03A2  00A0               	movwf	??___fladd
  2623     03A3  30FF               	movlw	255
  2624     03A4  00A1               	movwf	??___fladd+1
  2625     03A5  30FF               	movlw	255
  2626     03A6  00A2               	movwf	??___fladd+2
  2627     03A7  30FF               	movlw	255
  2628     03A8  00A3               	movwf	??___fladd+3
  2629     03A9  0874               	movf	___fladd@a,w
  2630     03AA  00A4               	movwf	??___fladd+4
  2631     03AB  0875               	movf	___fladd@a+1,w
  2632     03AC  00A5               	movwf	??___fladd+5
  2633     03AD  0876               	movf	___fladd@a+2,w
  2634     03AE  00A6               	movwf	??___fladd+6
  2635     03AF  0877               	movf	___fladd@a+3,w
  2636     03B0  00A7               	movwf	??___fladd+7
  2637     03B1  0870               	movf	___fladd@b,w
  2638     03B2  02A4               	subwf	??___fladd+4,f
  2639     03B3  0871               	movf	___fladd@b+1,w
  2640     03B4  1C03               	skipc
  2641     03B5  0F71               	incfsz	___fladd@b+1,w
  2642     03B6  2BB8               	goto	u1981
  2643     03B7  2BB9               	goto	u1982
  2644     03B8                     u1981:
  2645     03B8  02A5               	subwf	??___fladd+5,f
  2646     03B9                     u1982:
  2647     03B9  0872               	movf	___fladd@b+2,w
  2648     03BA  1C03               	skipc
  2649     03BB  0F72               	incfsz	___fladd@b+2,w
  2650     03BC  2BBE               	goto	u1983
  2651     03BD  2BBF               	goto	u1984
  2652     03BE                     u1983:
  2653     03BE  02A6               	subwf	??___fladd+6,f
  2654     03BF                     u1984:
  2655     03BF  0873               	movf	___fladd@b+3,w
  2656     03C0  1C03               	skipc
  2657     03C1  0F73               	incfsz	___fladd@b+3,w
  2658     03C2  2BC4               	goto	u1985
  2659     03C3  2BC5               	goto	u1986
  2660     03C4                     u1985:
  2661     03C4  02A7               	subwf	??___fladd+7,f
  2662     03C5                     u1986:
  2663     03C5  0824               	movf	??___fladd+4,w
  2664     03C6  07A0               	addwf	??___fladd,f
  2665     03C7  0825               	movf	??___fladd+5,w
  2666     03C8  1803               	skipnc
  2667     03C9  0F25               	incfsz	??___fladd+5,w
  2668     03CA  2BCC               	goto	u1990
  2669     03CB  2BCD               	goto	u1991
  2670     03CC                     u1990:
  2671     03CC  07A1               	addwf	??___fladd+1,f
  2672     03CD                     u1991:
  2673     03CD  0826               	movf	??___fladd+6,w
  2674     03CE  1803               	skipnc
  2675     03CF  0F26               	incfsz	??___fladd+6,w
  2676     03D0  2BD2               	goto	u1992
  2677     03D1  2BD3               	goto	u1993
  2678     03D2                     u1992:
  2679     03D2  07A2               	addwf	??___fladd+2,f
  2680     03D3                     u1993:
  2681     03D3  0827               	movf	??___fladd+7,w
  2682     03D4  1803               	skipnc
  2683     03D5  0A27               	incf	??___fladd+7,w
  2684     03D6  07A3               	addwf	??___fladd+3,f
  2685     03D7  0823               	movf	??___fladd+3,w
  2686     03D8  00F3               	movwf	___fladd@b+3
  2687     03D9  0822               	movf	??___fladd+2,w
  2688     03DA  00F2               	movwf	___fladd@b+2
  2689     03DB  0821               	movf	??___fladd+1,w
  2690     03DC  00F1               	movwf	___fladd@b+1
  2691     03DD  0820               	movf	??___fladd,w
  2692     03DE  00F0               	movwf	___fladd@b
  2693     03DF                     l1532:
  2694     03DF  3080               	movlw	128
  2695     03E0  06F8               	xorwf	___fladd@signs,f
  2696     03E1                     l1534:
  2697     03E1  037B               	decf	___fladd@grs,w
  2698     03E2  3AFF               	xorlw	255
  2699     03E3  00FB               	movwf	___fladd@grs
  2700     03E4                     l1536:
  2701     03E4  087B               	movf	___fladd@grs,w
  2702     03E5  1D03               	btfss	3,2
  2703     03E6  2BE8               	goto	u2001
  2704     03E7  2BE9               	goto	u2000
  2705     03E8                     u2001:
  2706     03E8  2C06               	goto	l484
  2707     03E9                     u2000:
  2708     03E9                     l1538:
  2709     03E9  3001               	movlw	1
  2710     03EA  07F0               	addwf	___fladd@b,f
  2711     03EB  3000               	movlw	0
  2712     03EC  1803               	skipnc
  2713     03ED  3001               	movlw	1
  2714     03EE  07F1               	addwf	___fladd@b+1,f
  2715     03EF  3000               	movlw	0
  2716     03F0  1803               	skipnc
  2717     03F1  3001               	movlw	1
  2718     03F2  07F2               	addwf	___fladd@b+2,f
  2719     03F3  3000               	movlw	0
  2720     03F4  1803               	skipnc
  2721     03F5  3001               	movlw	1
  2722     03F6  07F3               	addwf	___fladd@b+3,f
  2723     03F7  2C06               	goto	l484
  2724     03F8                     l1540:
  2725     03F8  0874               	movf	___fladd@a,w
  2726     03F9  02F0               	subwf	___fladd@b,f
  2727     03FA  0875               	movf	___fladd@a+1,w
  2728     03FB  1C03               	skipc
  2729     03FC  0F75               	incfsz	___fladd@a+1,w
  2730     03FD  02F1               	subwf	___fladd@b+1,f
  2731     03FE  0876               	movf	___fladd@a+2,w
  2732     03FF  1C03               	skipc
  2733     0400  0F76               	incfsz	___fladd@a+2,w
  2734     0401  02F2               	subwf	___fladd@b+2,f
  2735     0402  0877               	movf	___fladd@a+3,w
  2736     0403  1C03               	skipc
  2737     0404  0F77               	incfsz	___fladd@a+3,w
  2738     0405  02F3               	subwf	___fladd@b+3,f
  2739     0406                     l484:
  2740     0406  0873               	movf	___fladd@b+3,w
  2741     0407  0472               	iorwf	___fladd@b+2,w
  2742     0408  0471               	iorwf	___fladd@b+1,w
  2743     0409  0470               	iorwf	___fladd@b,w
  2744     040A  1D03               	skipz
  2745     040B  2C0D               	goto	u2011
  2746     040C  2C0E               	goto	u2010
  2747     040D                     u2011:
  2748     040D  2C3D               	goto	l1562
  2749     040E                     u2010:
  2750     040E                     l1542:
  2751     040E  087B               	movf	___fladd@grs,w
  2752     040F  1D03               	btfss	3,2
  2753     0410  2C12               	goto	u2021
  2754     0411  2C13               	goto	u2020
  2755     0412                     u2021:
  2756     0412  2C3D               	goto	l1562
  2757     0413                     u2020:
  2758     0413                     l1544:
  2759     0413  3000               	movlw	0
  2760     0414  00F3               	movwf	?___fladd+3
  2761     0415  3000               	movlw	0
  2762     0416  00F2               	movwf	?___fladd+2
  2763     0417  3000               	movlw	0
  2764     0418  00F1               	movwf	?___fladd+1
  2765     0419  3000               	movlw	0
  2766     041A  00F0               	movwf	?___fladd
  2767     041B  2CB9               	goto	l476
  2768     041C                     l1548:
  2769     041C  3001               	movlw	1
  2770     041D  1283               	bcf	3,5	;RP0=0, select bank0
  2771     041E  1303               	bcf	3,6	;RP1=0, select bank0
  2772     041F  00A0               	movwf	??___fladd
  2773     0420                     u2035:
  2774     0420  1003               	clrc
  2775     0421  0DF0               	rlf	___fladd@b,f
  2776     0422  0DF1               	rlf	___fladd@b+1,f
  2777     0423  0DF2               	rlf	___fladd@b+2,f
  2778     0424  0DF3               	rlf	___fladd@b+3,f
  2779     0425  0BA0               	decfsz	??___fladd,f
  2780     0426  2C20               	goto	u2035
  2781     0427                     l1550:
  2782     0427  1FFB               	btfss	___fladd@grs,7
  2783     0428  2C2A               	goto	u2041
  2784     0429  2C2B               	goto	u2040
  2785     042A                     u2041:
  2786     042A  2C2C               	goto	l488
  2787     042B                     u2040:
  2788     042B                     l1552:
  2789     042B  1470               	bsf	___fladd@b,0
  2790     042C                     l488:
  2791     042C  1C7B               	btfss	___fladd@grs,0
  2792     042D  2C2F               	goto	u2051
  2793     042E  2C30               	goto	u2050
  2794     042F                     u2051:
  2795     042F  2C34               	goto	l1556
  2796     0430                     u2050:
  2797     0430                     l1554:
  2798     0430  1403               	setc
  2799     0431  0D7B               	rlf	___fladd@grs,w
  2800     0432  00FB               	movwf	___fladd@grs
  2801     0433  2C36               	goto	l1558
  2802     0434                     l1556:
  2803     0434  1003               	clrc
  2804     0435  0DFB               	rlf	___fladd@grs,f
  2805     0436                     l1558:
  2806     0436  087A               	movf	___fladd@bexp,w
  2807     0437  1903               	btfsc	3,2
  2808     0438  2C3A               	goto	u2061
  2809     0439  2C3B               	goto	u2060
  2810     043A                     u2061:
  2811     043A  2C3D               	goto	l1562
  2812     043B                     u2060:
  2813     043B                     l1560:
  2814     043B  3001               	movlw	1
  2815     043C  02FA               	subwf	___fladd@bexp,f
  2816     043D                     l1562:
  2817     043D  1FF2               	btfss	___fladd@b+2,7
  2818     043E  2C40               	goto	u2071
  2819     043F  2C41               	goto	u2070
  2820     0440                     u2071:
  2821     0440  2C1C               	goto	l1548
  2822     0441                     u2070:
  2823     0441                     l1564:
  2824     0441  01F9               	clrf	___fladd@aexp
  2825     0442                     l1566:
  2826     0442  1FFB               	btfss	___fladd@grs,7
  2827     0443  2C45               	goto	u2081
  2828     0444  2C46               	goto	u2080
  2829     0445                     u2081:
  2830     0445  2C54               	goto	l1574
  2831     0446                     u2080:
  2832     0446                     l1568:
  2833     0446  087B               	movf	___fladd@grs,w
  2834     0447  397F               	andlw	127
  2835     0448  1903               	btfsc	3,2
  2836     0449  2C4B               	goto	u2091
  2837     044A  2C4C               	goto	u2090
  2838     044B                     u2091:
  2839     044B  2C4F               	goto	l494
  2840     044C                     u2090:
  2841     044C                     l1570:
  2842     044C  3001               	movlw	1
  2843     044D  00F9               	movwf	___fladd@aexp
  2844     044E  2C54               	goto	l1574
  2845     044F                     l494:
  2846     044F  1C70               	btfss	___fladd@b,0
  2847     0450  2C52               	goto	u2101
  2848     0451  2C53               	goto	u2100
  2849     0452                     u2101:
  2850     0452  2C54               	goto	l1574
  2851     0453                     u2100:
  2852     0453  2C4C               	goto	l1570
  2853     0454                     l1574:
  2854     0454  0879               	movf	___fladd@aexp,w
  2855     0455  1903               	btfsc	3,2
  2856     0456  2C58               	goto	u2111
  2857     0457  2C59               	goto	u2110
  2858     0458                     u2111:
  2859     0458  2C8D               	goto	l497
  2860     0459                     u2110:
  2861     0459                     l1576:
  2862     0459  3001               	movlw	1
  2863     045A  07F0               	addwf	___fladd@b,f
  2864     045B  3000               	movlw	0
  2865     045C  1803               	skipnc
  2866     045D  3001               	movlw	1
  2867     045E  07F1               	addwf	___fladd@b+1,f
  2868     045F  3000               	movlw	0
  2869     0460  1803               	skipnc
  2870     0461  3001               	movlw	1
  2871     0462  07F2               	addwf	___fladd@b+2,f
  2872     0463  3000               	movlw	0
  2873     0464  1803               	skipnc
  2874     0465  3001               	movlw	1
  2875     0466  07F3               	addwf	___fladd@b+3,f
  2876     0467                     l1578:
  2877     0467  1C73               	btfss	___fladd@b+3,0
  2878     0468  2C6A               	goto	u2121
  2879     0469  2C6B               	goto	u2120
  2880     046A                     u2121:
  2881     046A  2C8D               	goto	l497
  2882     046B                     u2120:
  2883     046B                     l1580:
  2884     046B  0870               	movf	___fladd@b,w
  2885     046C  1283               	bcf	3,5	;RP0=0, select bank0
  2886     046D  1303               	bcf	3,6	;RP1=0, select bank0
  2887     046E  00A0               	movwf	??___fladd
  2888     046F  0871               	movf	___fladd@b+1,w
  2889     0470  00A1               	movwf	??___fladd+1
  2890     0471  0872               	movf	___fladd@b+2,w
  2891     0472  00A2               	movwf	??___fladd+2
  2892     0473  0873               	movf	___fladd@b+3,w
  2893     0474  00A3               	movwf	??___fladd+3
  2894     0475  3001               	movlw	1
  2895     0476  00A4               	movwf	??___fladd+4
  2896     0477                     u2135:
  2897     0477  0D23               	rlf	??___fladd+3,w
  2898     0478  0CA3               	rrf	??___fladd+3,f
  2899     0479  0CA2               	rrf	??___fladd+2,f
  2900     047A  0CA1               	rrf	??___fladd+1,f
  2901     047B  0CA0               	rrf	??___fladd,f
  2902     047C                     u2130:
  2903     047C  0BA4               	decfsz	??___fladd+4,f
  2904     047D  2C77               	goto	u2135
  2905     047E  0823               	movf	??___fladd+3,w
  2906     047F  00F3               	movwf	___fladd@b+3
  2907     0480  0822               	movf	??___fladd+2,w
  2908     0481  00F2               	movwf	___fladd@b+2
  2909     0482  0821               	movf	??___fladd+1,w
  2910     0483  00F1               	movwf	___fladd@b+1
  2911     0484  0820               	movf	??___fladd,w
  2912     0485  00F0               	movwf	___fladd@b
  2913     0486  0A7A               	incf	___fladd@bexp,w
  2914     0487  1903               	btfsc	3,2
  2915     0488  2C8A               	goto	u2141
  2916     0489  2C8B               	goto	u2140
  2917     048A                     u2141:
  2918     048A  2C8D               	goto	l497
  2919     048B                     u2140:
  2920     048B                     l1582:
  2921     048B  3001               	movlw	1
  2922     048C  07FA               	addwf	___fladd@bexp,f
  2923     048D                     l497:
  2924     048D  0A7A               	incf	___fladd@bexp,w
  2925     048E  1903               	btfsc	3,2
  2926     048F  2C91               	goto	u2151
  2927     0490  2C92               	goto	u2150
  2928     0491                     u2151:
  2929     0491  2C97               	goto	l1586
  2930     0492                     u2150:
  2931     0492                     l1584:
  2932     0492  087A               	movf	___fladd@bexp,w
  2933     0493  1D03               	btfss	3,2
  2934     0494  2C96               	goto	u2161
  2935     0495  2C97               	goto	u2160
  2936     0496                     u2161:
  2937     0496  2CA5               	goto	l1592
  2938     0497                     u2160:
  2939     0497                     l1586:
  2940     0497  3000               	movlw	0
  2941     0498  00F3               	movwf	___fladd@b+3
  2942     0499  3000               	movlw	0
  2943     049A  00F2               	movwf	___fladd@b+2
  2944     049B  3000               	movlw	0
  2945     049C  00F1               	movwf	___fladd@b+1
  2946     049D  3000               	movlw	0
  2947     049E  00F0               	movwf	___fladd@b
  2948     049F                     l1588:
  2949     049F  087A               	movf	___fladd@bexp,w
  2950     04A0  1D03               	btfss	3,2
  2951     04A1  2CA3               	goto	u2171
  2952     04A2  2CA4               	goto	u2170
  2953     04A3                     u2171:
  2954     04A3  2CA5               	goto	l1592
  2955     04A4                     u2170:
  2956     04A4                     l1590:
  2957     04A4  01F8               	clrf	___fladd@signs
  2958     04A5                     l1592:
  2959     04A5  1C7A               	btfss	___fladd@bexp,0
  2960     04A6  2CA8               	goto	u2181
  2961     04A7  2CA9               	goto	u2180
  2962     04A8                     u2181:
  2963     04A8  2CAB               	goto	l1596
  2964     04A9                     u2180:
  2965     04A9                     l1594:
  2966     04A9  17F2               	bsf	___fladd@b+2,7
  2967     04AA  2CAD               	goto	l505
  2968     04AB                     l1596:
  2969     04AB  307F               	movlw	127
  2970     04AC  05F2               	andwf	___fladd@b+2,f
  2971     04AD                     l505:
  2972     04AD  087A               	movf	___fladd@bexp,w
  2973     04AE  1283               	bcf	3,5	;RP0=0, select bank0
  2974     04AF  1303               	bcf	3,6	;RP1=0, select bank0
  2975     04B0  00A0               	movwf	??___fladd
  2976     04B1  1003               	clrc
  2977     04B2  0C20               	rrf	??___fladd,w
  2978     04B3  00F3               	movwf	___fladd@b+3
  2979     04B4                     l1598:
  2980     04B4  1FF8               	btfss	___fladd@signs,7
  2981     04B5  2CB7               	goto	u2191
  2982     04B6  2CB8               	goto	u2190
  2983     04B7                     u2191:
  2984     04B7  2CB9               	goto	l506
  2985     04B8                     u2190:
  2986     04B8                     l1600:
  2987     04B8  17F3               	bsf	___fladd@b+3,7
  2988     04B9                     l506:
  2989     04B9                     l476:
  2990     04B9  0008               	return
  2991     04BA                     __end_of___fladd:
  2992                           
  2993                           	psect	text9
  2994     04BA                     __ptext9:	
  2995 ;; *************** function ___flmul *****************
  2996 ;; Defined at:
  2997 ;;		line 8 in file "C:\Program Files\Microchip\xc8\v3.10\pic\sources\c99\common\sprcmul.c"
  2998 ;; Parameters:    Size  Location     Type
  2999 ;;  b               4   16[BANK0 ] unsigned char 
  3000 ;;  a               4   20[BANK0 ] unsigned char 
  3001 ;; Auto vars:     Size  Location     Type
  3002 ;;  prod            4   36[BANK0 ] struct .
  3003 ;;  grs             4   30[BANK0 ] unsigned long 
  3004 ;;  temp            2   40[BANK0 ] struct .
  3005 ;;  bexp            1   35[BANK0 ] unsigned char 
  3006 ;;  aexp            1   34[BANK0 ] unsigned char 
  3007 ;;  sign            1   29[BANK0 ] unsigned char 
  3008 ;; Return value:  Size  Location     Type
  3009 ;;                  4   16[BANK0 ] unsigned char 
  3010 ;; Registers used:
  3011 ;;		wreg, status,2, status,0, pclath, btemp1, cstack
  3012 ;; Tracked objects:
  3013 ;;		On entry : 0/0
  3014 ;;		On exit  : 0/0
  3015 ;;		Unchanged: 0/0
  3016 ;; Data sizes:     COMMON   BANK0   BANK1   BANK3   BANK2
  3017 ;;      Params:         0       8       0       0       0
  3018 ;;      Locals:         0      13       0       0       0
  3019 ;;      Temps:          0       5       0       0       0
  3020 ;;      Totals:         0      26       0       0       0
  3021 ;;Total ram usage:       26 bytes
  3022 ;; Hardware stack levels used: 1
  3023 ;; This function calls:
  3024 ;;		__Umul8_16
  3025 ;; This function is called by:
  3026 ;;		_floatToString
  3027 ;;		_main
  3028 ;; This function uses a non-reentrant model
  3029 ;;
  3030                           
  3031     04BA                     ___flmul:	
  3032                           ;psect for function ___flmul
  3033                           
  3034     04BA                     l1690:	
  3035                           ;incstack = 0
  3036                           ; Regs used in ___flmul: [wreg+status,2+status,0+pclath+btemp1+cstack]
  3037                           
  3038     04BA  1283               	bcf	3,5	;RP0=0, select bank0
  3039     04BB  1303               	bcf	3,6	;RP1=0, select bank0
  3040     04BC  0833               	movf	___flmul@b+3,w
  3041     04BD  00BD               	movwf	___flmul@sign
  3042     04BE                     l1692:
  3043     04BE  3080               	movlw	128
  3044     04BF  05BD               	andwf	___flmul@sign,f
  3045     04C0                     l1694:
  3046     04C0  0833               	movf	___flmul@b+3,w
  3047     04C1  00B8               	movwf	??___flmul
  3048     04C2  0738               	addwf	??___flmul,w
  3049     04C3  00C3               	movwf	___flmul@bexp
  3050     04C4                     l1696:
  3051     04C4  1FB2               	btfss	___flmul@b+2,7
  3052     04C5  2CC7               	goto	u2371
  3053     04C6  2CC8               	goto	u2370
  3054     04C7                     u2371:
  3055     04C7  2CC9               	goto	l1700
  3056     04C8                     u2370:
  3057     04C8                     l1698:
  3058     04C8  1443               	bsf	___flmul@bexp,0
  3059     04C9                     l1700:
  3060     04C9  0843               	movf	___flmul@bexp,w
  3061     04CA  1903               	btfsc	3,2
  3062     04CB  2CCD               	goto	u2381
  3063     04CC  2CCE               	goto	u2380
  3064     04CD                     u2381:
  3065     04CD  2CDD               	goto	l1708
  3066     04CE                     u2380:
  3067     04CE                     l1702:
  3068     04CE  0A43               	incf	___flmul@bexp,w
  3069     04CF  1D03               	btfss	3,2
  3070     04D0  2CD2               	goto	u2391
  3071     04D1  2CD3               	goto	u2390
  3072     04D2                     u2391:
  3073     04D2  2CDB               	goto	l1706
  3074     04D3                     u2390:
  3075     04D3                     l1704:
  3076     04D3  3000               	movlw	0
  3077     04D4  00B3               	movwf	___flmul@b+3
  3078     04D5  3000               	movlw	0
  3079     04D6  00B2               	movwf	___flmul@b+2
  3080     04D7  3000               	movlw	0
  3081     04D8  00B1               	movwf	___flmul@b+1
  3082     04D9  3000               	movlw	0
  3083     04DA  00B0               	movwf	___flmul@b
  3084     04DB                     l1706:
  3085     04DB  17B2               	bsf	___flmul@b+2,7
  3086     04DC  2CE5               	goto	l1710
  3087     04DD                     l1708:
  3088     04DD  3000               	movlw	0
  3089     04DE  00B3               	movwf	___flmul@b+3
  3090     04DF  3000               	movlw	0
  3091     04E0  00B2               	movwf	___flmul@b+2
  3092     04E1  3000               	movlw	0
  3093     04E2  00B1               	movwf	___flmul@b+1
  3094     04E3  3000               	movlw	0
  3095     04E4  00B0               	movwf	___flmul@b
  3096     04E5                     l1710:
  3097     04E5  0837               	movf	___flmul@a+3,w
  3098     04E6  3980               	andlw	128
  3099     04E7  06BD               	xorwf	___flmul@sign,f
  3100     04E8                     l1712:
  3101     04E8  0837               	movf	___flmul@a+3,w
  3102     04E9  00B8               	movwf	??___flmul
  3103     04EA  0738               	addwf	??___flmul,w
  3104     04EB  00C2               	movwf	___flmul@aexp
  3105     04EC                     l1714:
  3106     04EC  1FB6               	btfss	___flmul@a+2,7
  3107     04ED  2CEF               	goto	u2401
  3108     04EE  2CF0               	goto	u2400
  3109     04EF                     u2401:
  3110     04EF  2CF1               	goto	l1718
  3111     04F0                     u2400:
  3112     04F0                     l1716:
  3113     04F0  1442               	bsf	___flmul@aexp,0
  3114     04F1                     l1718:
  3115     04F1  0842               	movf	___flmul@aexp,w
  3116     04F2  1903               	btfsc	3,2
  3117     04F3  2CF5               	goto	u2411
  3118     04F4  2CF6               	goto	u2410
  3119     04F5                     u2411:
  3120     04F5  2D05               	goto	l1726
  3121     04F6                     u2410:
  3122     04F6                     l1720:
  3123     04F6  0A42               	incf	___flmul@aexp,w
  3124     04F7  1D03               	btfss	3,2
  3125     04F8  2CFA               	goto	u2421
  3126     04F9  2CFB               	goto	u2420
  3127     04FA                     u2421:
  3128     04FA  2D03               	goto	l1724
  3129     04FB                     u2420:
  3130     04FB                     l1722:
  3131     04FB  3000               	movlw	0
  3132     04FC  00B7               	movwf	___flmul@a+3
  3133     04FD  3000               	movlw	0
  3134     04FE  00B6               	movwf	___flmul@a+2
  3135     04FF  3000               	movlw	0
  3136     0500  00B5               	movwf	___flmul@a+1
  3137     0501  3000               	movlw	0
  3138     0502  00B4               	movwf	___flmul@a
  3139     0503                     l1724:
  3140     0503  17B6               	bsf	___flmul@a+2,7
  3141     0504  2D0D               	goto	l1728
  3142     0505                     l1726:
  3143     0505  3000               	movlw	0
  3144     0506  00B7               	movwf	___flmul@a+3
  3145     0507  3000               	movlw	0
  3146     0508  00B6               	movwf	___flmul@a+2
  3147     0509  3000               	movlw	0
  3148     050A  00B5               	movwf	___flmul@a+1
  3149     050B  3000               	movlw	0
  3150     050C  00B4               	movwf	___flmul@a
  3151     050D                     l1728:
  3152     050D  0842               	movf	___flmul@aexp,w
  3153     050E  1903               	btfsc	3,2
  3154     050F  2D11               	goto	u2431
  3155     0510  2D12               	goto	u2430
  3156     0511                     u2431:
  3157     0511  2D17               	goto	l1732
  3158     0512                     u2430:
  3159     0512                     l1730:
  3160     0512  0843               	movf	___flmul@bexp,w
  3161     0513  1D03               	btfss	3,2
  3162     0514  2D16               	goto	u2441
  3163     0515  2D17               	goto	u2440
  3164     0516                     u2441:
  3165     0516  2D20               	goto	l1736
  3166     0517                     u2440:
  3167     0517                     l1732:
  3168     0517  3000               	movlw	0
  3169     0518  00B3               	movwf	?___flmul+3
  3170     0519  3000               	movlw	0
  3171     051A  00B2               	movwf	?___flmul+2
  3172     051B  3000               	movlw	0
  3173     051C  00B1               	movwf	?___flmul+1
  3174     051D  3000               	movlw	0
  3175     051E  00B0               	movwf	?___flmul
  3176     051F  2FFB               	goto	l559
  3177     0520                     l1736:
  3178     0520  0830               	movf	___flmul@b,w
  3179     0521  00F0               	movwf	__Umul8_16@multiplicand
  3180     0522  0836               	movf	___flmul@a+2,w
  3181     0523  120A  158A  2498  120A  118A  	fcall	__Umul8_16
  3182     0528  0871               	movf	?__Umul8_16+1,w
  3183     0529  1283               	bcf	3,5	;RP0=0, select bank0
  3184     052A  1303               	bcf	3,6	;RP1=0, select bank0
  3185     052B  00C9               	movwf	___flmul@temp+1
  3186     052C  0870               	movf	?__Umul8_16,w
  3187     052D  00C8               	movwf	___flmul@temp
  3188     052E                     l1738:
  3189     052E  0848               	movf	___flmul@temp,w
  3190     052F  00B8               	movwf	??___flmul
  3191     0530  01B9               	clrf	??___flmul+1
  3192     0531  01BA               	clrf	??___flmul+2
  3193     0532  01BB               	clrf	??___flmul+3
  3194     0533  083B               	movf	??___flmul+3,w
  3195     0534  00C1               	movwf	___flmul@grs+3
  3196     0535  083A               	movf	??___flmul+2,w
  3197     0536  00C0               	movwf	___flmul@grs+2
  3198     0537  0839               	movf	??___flmul+1,w
  3199     0538  00BF               	movwf	___flmul@grs+1
  3200     0539  0838               	movf	??___flmul,w
  3201     053A  00BE               	movwf	___flmul@grs
  3202     053B                     l1740:
  3203     053B  0849               	movf	___flmul@temp+1,w
  3204     053C  00B8               	movwf	??___flmul
  3205     053D  01B9               	clrf	??___flmul+1
  3206     053E  01BA               	clrf	??___flmul+2
  3207     053F  01BB               	clrf	??___flmul+3
  3208     0540  083B               	movf	??___flmul+3,w
  3209     0541  00C7               	movwf	___flmul@prod+3
  3210     0542  083A               	movf	??___flmul+2,w
  3211     0543  00C6               	movwf	___flmul@prod+2
  3212     0544  0839               	movf	??___flmul+1,w
  3213     0545  00C5               	movwf	___flmul@prod+1
  3214     0546  0838               	movf	??___flmul,w
  3215     0547  00C4               	movwf	___flmul@prod
  3216     0548  0831               	movf	___flmul@b+1,w
  3217     0549  00F0               	movwf	__Umul8_16@multiplicand
  3218     054A  0835               	movf	___flmul@a+1,w
  3219     054B  120A  158A  2498  120A  118A  	fcall	__Umul8_16
  3220     0550  0871               	movf	?__Umul8_16+1,w
  3221     0551  1283               	bcf	3,5	;RP0=0, select bank0
  3222     0552  1303               	bcf	3,6	;RP1=0, select bank0
  3223     0553  00C9               	movwf	___flmul@temp+1
  3224     0554  0870               	movf	?__Umul8_16,w
  3225     0555  00C8               	movwf	___flmul@temp
  3226     0556                     l1742:
  3227     0556  0848               	movf	___flmul@temp,w
  3228     0557  00B8               	movwf	??___flmul
  3229     0558  01B9               	clrf	??___flmul+1
  3230     0559  01BA               	clrf	??___flmul+2
  3231     055A  01BB               	clrf	??___flmul+3
  3232     055B  0838               	movf	??___flmul,w
  3233     055C  07BE               	addwf	___flmul@grs,f
  3234     055D  0839               	movf	??___flmul+1,w
  3235     055E  1103               	clrz
  3236     055F  1803               	skipnc
  3237     0560  3E01               	addlw	1
  3238     0561  1903               	skipnz
  3239     0562  2D64               	goto	u2451
  3240     0563  07BF               	addwf	___flmul@grs+1,f
  3241     0564                     u2451:
  3242     0564  083A               	movf	??___flmul+2,w
  3243     0565  1103               	clrz
  3244     0566  1803               	skipnc
  3245     0567  3E01               	addlw	1
  3246     0568  1903               	skipnz
  3247     0569  2D6B               	goto	u2452
  3248     056A  07C0               	addwf	___flmul@grs+2,f
  3249     056B                     u2452:
  3250     056B  083B               	movf	??___flmul+3,w
  3251     056C  1103               	clrz
  3252     056D  1803               	skipnc
  3253     056E  3E01               	addlw	1
  3254     056F  1903               	skipnz
  3255     0570  2D72               	goto	u2453
  3256     0571  07C1               	addwf	___flmul@grs+3,f
  3257     0572                     u2453:
  3258     0572                     l1744:
  3259     0572  0849               	movf	___flmul@temp+1,w
  3260     0573  00B8               	movwf	??___flmul
  3261     0574  01B9               	clrf	??___flmul+1
  3262     0575  01BA               	clrf	??___flmul+2
  3263     0576  01BB               	clrf	??___flmul+3
  3264     0577  0838               	movf	??___flmul,w
  3265     0578  07C4               	addwf	___flmul@prod,f
  3266     0579  0839               	movf	??___flmul+1,w
  3267     057A  1103               	clrz
  3268     057B  1803               	skipnc
  3269     057C  3E01               	addlw	1
  3270     057D  1903               	skipnz
  3271     057E  2D80               	goto	u2461
  3272     057F  07C5               	addwf	___flmul@prod+1,f
  3273     0580                     u2461:
  3274     0580  083A               	movf	??___flmul+2,w
  3275     0581  1103               	clrz
  3276     0582  1803               	skipnc
  3277     0583  3E01               	addlw	1
  3278     0584  1903               	skipnz
  3279     0585  2D87               	goto	u2462
  3280     0586  07C6               	addwf	___flmul@prod+2,f
  3281     0587                     u2462:
  3282     0587  083B               	movf	??___flmul+3,w
  3283     0588  1103               	clrz
  3284     0589  1803               	skipnc
  3285     058A  3E01               	addlw	1
  3286     058B  1903               	skipnz
  3287     058C  2D8E               	goto	u2463
  3288     058D  07C7               	addwf	___flmul@prod+3,f
  3289     058E                     u2463:
  3290     058E  0832               	movf	___flmul@b+2,w
  3291     058F  00F0               	movwf	__Umul8_16@multiplicand
  3292     0590  0834               	movf	___flmul@a,w
  3293     0591  120A  158A  2498  120A  118A  	fcall	__Umul8_16
  3294     0596  0871               	movf	?__Umul8_16+1,w
  3295     0597  1283               	bcf	3,5	;RP0=0, select bank0
  3296     0598  1303               	bcf	3,6	;RP1=0, select bank0
  3297     0599  00C9               	movwf	___flmul@temp+1
  3298     059A  0870               	movf	?__Umul8_16,w
  3299     059B  00C8               	movwf	___flmul@temp
  3300     059C                     l1746:
  3301     059C  0848               	movf	___flmul@temp,w
  3302     059D  00B8               	movwf	??___flmul
  3303     059E  01B9               	clrf	??___flmul+1
  3304     059F  01BA               	clrf	??___flmul+2
  3305     05A0  01BB               	clrf	??___flmul+3
  3306     05A1  0838               	movf	??___flmul,w
  3307     05A2  07BE               	addwf	___flmul@grs,f
  3308     05A3  0839               	movf	??___flmul+1,w
  3309     05A4  1103               	clrz
  3310     05A5  1803               	skipnc
  3311     05A6  3E01               	addlw	1
  3312     05A7  1903               	skipnz
  3313     05A8  2DAA               	goto	u2471
  3314     05A9  07BF               	addwf	___flmul@grs+1,f
  3315     05AA                     u2471:
  3316     05AA  083A               	movf	??___flmul+2,w
  3317     05AB  1103               	clrz
  3318     05AC  1803               	skipnc
  3319     05AD  3E01               	addlw	1
  3320     05AE  1903               	skipnz
  3321     05AF  2DB1               	goto	u2472
  3322     05B0  07C0               	addwf	___flmul@grs+2,f
  3323     05B1                     u2472:
  3324     05B1  083B               	movf	??___flmul+3,w
  3325     05B2  1103               	clrz
  3326     05B3  1803               	skipnc
  3327     05B4  3E01               	addlw	1
  3328     05B5  1903               	skipnz
  3329     05B6  2DB8               	goto	u2473
  3330     05B7  07C1               	addwf	___flmul@grs+3,f
  3331     05B8                     u2473:
  3332     05B8                     l1748:
  3333     05B8  0849               	movf	___flmul@temp+1,w
  3334     05B9  00B8               	movwf	??___flmul
  3335     05BA  01B9               	clrf	??___flmul+1
  3336     05BB  01BA               	clrf	??___flmul+2
  3337     05BC  01BB               	clrf	??___flmul+3
  3338     05BD  0838               	movf	??___flmul,w
  3339     05BE  07C4               	addwf	___flmul@prod,f
  3340     05BF  0839               	movf	??___flmul+1,w
  3341     05C0  1103               	clrz
  3342     05C1  1803               	skipnc
  3343     05C2  3E01               	addlw	1
  3344     05C3  1903               	skipnz
  3345     05C4  2DC6               	goto	u2481
  3346     05C5  07C5               	addwf	___flmul@prod+1,f
  3347     05C6                     u2481:
  3348     05C6  083A               	movf	??___flmul+2,w
  3349     05C7  1103               	clrz
  3350     05C8  1803               	skipnc
  3351     05C9  3E01               	addlw	1
  3352     05CA  1903               	skipnz
  3353     05CB  2DCD               	goto	u2482
  3354     05CC  07C6               	addwf	___flmul@prod+2,f
  3355     05CD                     u2482:
  3356     05CD  083B               	movf	??___flmul+3,w
  3357     05CE  1103               	clrz
  3358     05CF  1803               	skipnc
  3359     05D0  3E01               	addlw	1
  3360     05D1  1903               	skipnz
  3361     05D2  2DD4               	goto	u2483
  3362     05D3  07C7               	addwf	___flmul@prod+3,f
  3363     05D4                     u2483:
  3364     05D4                     l1750:
  3365     05D4  3008               	movlw	8
  3366     05D5  00B8               	movwf	??___flmul
  3367     05D6                     u2495:
  3368     05D6  1003               	clrc
  3369     05D7  0DBE               	rlf	___flmul@grs,f
  3370     05D8  0DBF               	rlf	___flmul@grs+1,f
  3371     05D9  0DC0               	rlf	___flmul@grs+2,f
  3372     05DA  0DC1               	rlf	___flmul@grs+3,f
  3373     05DB  0BB8               	decfsz	??___flmul,f
  3374     05DC  2DD6               	goto	u2495
  3375     05DD                     l1752:
  3376     05DD  0831               	movf	___flmul@b+1,w
  3377     05DE  00F0               	movwf	__Umul8_16@multiplicand
  3378     05DF  0834               	movf	___flmul@a,w
  3379     05E0  120A  158A  2498  120A  118A  	fcall	__Umul8_16
  3380     05E5  0871               	movf	?__Umul8_16+1,w
  3381     05E6  1283               	bcf	3,5	;RP0=0, select bank0
  3382     05E7  1303               	bcf	3,6	;RP1=0, select bank0
  3383     05E8  00C9               	movwf	___flmul@temp+1
  3384     05E9  0870               	movf	?__Umul8_16,w
  3385     05EA  00C8               	movwf	___flmul@temp
  3386     05EB                     l1754:
  3387     05EB  0848               	movf	___flmul@temp,w
  3388     05EC  00B8               	movwf	??___flmul
  3389     05ED  0849               	movf	___flmul@temp+1,w
  3390     05EE  00B9               	movwf	??___flmul+1
  3391     05EF  01BA               	clrf	??___flmul+2
  3392     05F0  01BB               	clrf	??___flmul+3
  3393     05F1  0838               	movf	??___flmul,w
  3394     05F2  07BE               	addwf	___flmul@grs,f
  3395     05F3  0839               	movf	??___flmul+1,w
  3396     05F4  1103               	clrz
  3397     05F5  1803               	skipnc
  3398     05F6  3E01               	addlw	1
  3399     05F7  1903               	skipnz
  3400     05F8  2DFA               	goto	u2501
  3401     05F9  07BF               	addwf	___flmul@grs+1,f
  3402     05FA                     u2501:
  3403     05FA  083A               	movf	??___flmul+2,w
  3404     05FB  1103               	clrz
  3405     05FC  1803               	skipnc
  3406     05FD  3E01               	addlw	1
  3407     05FE  1903               	skipnz
  3408     05FF  2E01               	goto	u2502
  3409     0600  07C0               	addwf	___flmul@grs+2,f
  3410     0601                     u2502:
  3411     0601  083B               	movf	??___flmul+3,w
  3412     0602  1103               	clrz
  3413     0603  1803               	skipnc
  3414     0604  3E01               	addlw	1
  3415     0605  1903               	skipnz
  3416     0606  2E08               	goto	u2503
  3417     0607  07C1               	addwf	___flmul@grs+3,f
  3418     0608                     u2503:
  3419     0608                     l1756:
  3420     0608  0830               	movf	___flmul@b,w
  3421     0609  00F0               	movwf	__Umul8_16@multiplicand
  3422     060A  0835               	movf	___flmul@a+1,w
  3423     060B  120A  158A  2498  120A  118A  	fcall	__Umul8_16
  3424     0610  0871               	movf	?__Umul8_16+1,w
  3425     0611  1283               	bcf	3,5	;RP0=0, select bank0
  3426     0612  1303               	bcf	3,6	;RP1=0, select bank0
  3427     0613  00C9               	movwf	___flmul@temp+1
  3428     0614  0870               	movf	?__Umul8_16,w
  3429     0615  00C8               	movwf	___flmul@temp
  3430     0616                     l1758:
  3431     0616  0848               	movf	___flmul@temp,w
  3432     0617  00B8               	movwf	??___flmul
  3433     0618  0849               	movf	___flmul@temp+1,w
  3434     0619  00B9               	movwf	??___flmul+1
  3435     061A  01BA               	clrf	??___flmul+2
  3436     061B  01BB               	clrf	??___flmul+3
  3437     061C  0838               	movf	??___flmul,w
  3438     061D  07BE               	addwf	___flmul@grs,f
  3439     061E  0839               	movf	??___flmul+1,w
  3440     061F  1103               	clrz
  3441     0620  1803               	skipnc
  3442     0621  3E01               	addlw	1
  3443     0622  1903               	skipnz
  3444     0623  2E25               	goto	u2511
  3445     0624  07BF               	addwf	___flmul@grs+1,f
  3446     0625                     u2511:
  3447     0625  083A               	movf	??___flmul+2,w
  3448     0626  1103               	clrz
  3449     0627  1803               	skipnc
  3450     0628  3E01               	addlw	1
  3451     0629  1903               	skipnz
  3452     062A  2E2C               	goto	u2512
  3453     062B  07C0               	addwf	___flmul@grs+2,f
  3454     062C                     u2512:
  3455     062C  083B               	movf	??___flmul+3,w
  3456     062D  1103               	clrz
  3457     062E  1803               	skipnc
  3458     062F  3E01               	addlw	1
  3459     0630  1903               	skipnz
  3460     0631  2E33               	goto	u2513
  3461     0632  07C1               	addwf	___flmul@grs+3,f
  3462     0633                     u2513:
  3463     0633                     l1760:
  3464     0633  3008               	movlw	8
  3465     0634  00B8               	movwf	??___flmul
  3466     0635                     u2525:
  3467     0635  1003               	clrc
  3468     0636  0DBE               	rlf	___flmul@grs,f
  3469     0637  0DBF               	rlf	___flmul@grs+1,f
  3470     0638  0DC0               	rlf	___flmul@grs+2,f
  3471     0639  0DC1               	rlf	___flmul@grs+3,f
  3472     063A  0BB8               	decfsz	??___flmul,f
  3473     063B  2E35               	goto	u2525
  3474     063C  0830               	movf	___flmul@b,w
  3475     063D  00F0               	movwf	__Umul8_16@multiplicand
  3476     063E  0834               	movf	___flmul@a,w
  3477     063F  120A  158A  2498  120A  118A  	fcall	__Umul8_16
  3478     0644  0871               	movf	?__Umul8_16+1,w
  3479     0645  1283               	bcf	3,5	;RP0=0, select bank0
  3480     0646  1303               	bcf	3,6	;RP1=0, select bank0
  3481     0647  00C9               	movwf	___flmul@temp+1
  3482     0648  0870               	movf	?__Umul8_16,w
  3483     0649  00C8               	movwf	___flmul@temp
  3484     064A                     l1762:
  3485     064A  0848               	movf	___flmul@temp,w
  3486     064B  00B8               	movwf	??___flmul
  3487     064C  0849               	movf	___flmul@temp+1,w
  3488     064D  00B9               	movwf	??___flmul+1
  3489     064E  01BA               	clrf	??___flmul+2
  3490     064F  01BB               	clrf	??___flmul+3
  3491     0650  0838               	movf	??___flmul,w
  3492     0651  07BE               	addwf	___flmul@grs,f
  3493     0652  0839               	movf	??___flmul+1,w
  3494     0653  1103               	clrz
  3495     0654  1803               	skipnc
  3496     0655  3E01               	addlw	1
  3497     0656  1903               	skipnz
  3498     0657  2E59               	goto	u2531
  3499     0658  07BF               	addwf	___flmul@grs+1,f
  3500     0659                     u2531:
  3501     0659  083A               	movf	??___flmul+2,w
  3502     065A  1103               	clrz
  3503     065B  1803               	skipnc
  3504     065C  3E01               	addlw	1
  3505     065D  1903               	skipnz
  3506     065E  2E60               	goto	u2532
  3507     065F  07C0               	addwf	___flmul@grs+2,f
  3508     0660                     u2532:
  3509     0660  083B               	movf	??___flmul+3,w
  3510     0661  1103               	clrz
  3511     0662  1803               	skipnc
  3512     0663  3E01               	addlw	1
  3513     0664  1903               	skipnz
  3514     0665  2E67               	goto	u2533
  3515     0666  07C1               	addwf	___flmul@grs+3,f
  3516     0667                     u2533:
  3517     0667                     l1764:
  3518     0667  0831               	movf	___flmul@b+1,w
  3519     0668  00F0               	movwf	__Umul8_16@multiplicand
  3520     0669  0836               	movf	___flmul@a+2,w
  3521     066A  120A  158A  2498  120A  118A  	fcall	__Umul8_16
  3522     066F  0871               	movf	?__Umul8_16+1,w
  3523     0670  1283               	bcf	3,5	;RP0=0, select bank0
  3524     0671  1303               	bcf	3,6	;RP1=0, select bank0
  3525     0672  00C9               	movwf	___flmul@temp+1
  3526     0673  0870               	movf	?__Umul8_16,w
  3527     0674  00C8               	movwf	___flmul@temp
  3528     0675  0848               	movf	___flmul@temp,w
  3529     0676  00B8               	movwf	??___flmul
  3530     0677  0849               	movf	___flmul@temp+1,w
  3531     0678  00B9               	movwf	??___flmul+1
  3532     0679  01BA               	clrf	??___flmul+2
  3533     067A  01BB               	clrf	??___flmul+3
  3534     067B  0838               	movf	??___flmul,w
  3535     067C  07C4               	addwf	___flmul@prod,f
  3536     067D  0839               	movf	??___flmul+1,w
  3537     067E  1103               	clrz
  3538     067F  1803               	skipnc
  3539     0680  3E01               	addlw	1
  3540     0681  1903               	skipnz
  3541     0682  2E84               	goto	u2541
  3542     0683  07C5               	addwf	___flmul@prod+1,f
  3543     0684                     u2541:
  3544     0684  083A               	movf	??___flmul+2,w
  3545     0685  1103               	clrz
  3546     0686  1803               	skipnc
  3547     0687  3E01               	addlw	1
  3548     0688  1903               	skipnz
  3549     0689  2E8B               	goto	u2542
  3550     068A  07C6               	addwf	___flmul@prod+2,f
  3551     068B                     u2542:
  3552     068B  083B               	movf	??___flmul+3,w
  3553     068C  1103               	clrz
  3554     068D  1803               	skipnc
  3555     068E  3E01               	addlw	1
  3556     068F  1903               	skipnz
  3557     0690  2E92               	goto	u2543
  3558     0691  07C7               	addwf	___flmul@prod+3,f
  3559     0692                     u2543:
  3560     0692                     l1766:
  3561     0692  0832               	movf	___flmul@b+2,w
  3562     0693  00F0               	movwf	__Umul8_16@multiplicand
  3563     0694  0835               	movf	___flmul@a+1,w
  3564     0695  120A  158A  2498  120A  118A  	fcall	__Umul8_16
  3565     069A  0871               	movf	?__Umul8_16+1,w
  3566     069B  1283               	bcf	3,5	;RP0=0, select bank0
  3567     069C  1303               	bcf	3,6	;RP1=0, select bank0
  3568     069D  00C9               	movwf	___flmul@temp+1
  3569     069E  0870               	movf	?__Umul8_16,w
  3570     069F  00C8               	movwf	___flmul@temp
  3571     06A0                     l1768:
  3572     06A0  0848               	movf	___flmul@temp,w
  3573     06A1  00B8               	movwf	??___flmul
  3574     06A2  0849               	movf	___flmul@temp+1,w
  3575     06A3  00B9               	movwf	??___flmul+1
  3576     06A4  01BA               	clrf	??___flmul+2
  3577     06A5  01BB               	clrf	??___flmul+3
  3578     06A6  0838               	movf	??___flmul,w
  3579     06A7  07C4               	addwf	___flmul@prod,f
  3580     06A8  0839               	movf	??___flmul+1,w
  3581     06A9  1103               	clrz
  3582     06AA  1803               	skipnc
  3583     06AB  3E01               	addlw	1
  3584     06AC  1903               	skipnz
  3585     06AD  2EAF               	goto	u2551
  3586     06AE  07C5               	addwf	___flmul@prod+1,f
  3587     06AF                     u2551:
  3588     06AF  083A               	movf	??___flmul+2,w
  3589     06B0  1103               	clrz
  3590     06B1  1803               	skipnc
  3591     06B2  3E01               	addlw	1
  3592     06B3  1903               	skipnz
  3593     06B4  2EB6               	goto	u2552
  3594     06B5  07C6               	addwf	___flmul@prod+2,f
  3595     06B6                     u2552:
  3596     06B6  083B               	movf	??___flmul+3,w
  3597     06B7  1103               	clrz
  3598     06B8  1803               	skipnc
  3599     06B9  3E01               	addlw	1
  3600     06BA  1903               	skipnz
  3601     06BB  2EBD               	goto	u2553
  3602     06BC  07C7               	addwf	___flmul@prod+3,f
  3603     06BD                     u2553:
  3604     06BD  0832               	movf	___flmul@b+2,w
  3605     06BE  00F0               	movwf	__Umul8_16@multiplicand
  3606     06BF  0836               	movf	___flmul@a+2,w
  3607     06C0  120A  158A  2498  120A  118A  	fcall	__Umul8_16
  3608     06C5  0871               	movf	?__Umul8_16+1,w
  3609     06C6  1283               	bcf	3,5	;RP0=0, select bank0
  3610     06C7  1303               	bcf	3,6	;RP1=0, select bank0
  3611     06C8  00C9               	movwf	___flmul@temp+1
  3612     06C9  0870               	movf	?__Umul8_16,w
  3613     06CA  00C8               	movwf	___flmul@temp
  3614     06CB                     l1770:
  3615     06CB  0848               	movf	___flmul@temp,w
  3616     06CC  00B8               	movwf	??___flmul
  3617     06CD  0849               	movf	___flmul@temp+1,w
  3618     06CE  00B9               	movwf	??___flmul+1
  3619     06CF  01BA               	clrf	??___flmul+2
  3620     06D0  01BB               	clrf	??___flmul+3
  3621     06D1  3008               	movlw	8
  3622     06D2                     u2565:
  3623     06D2  1003               	clrc
  3624     06D3  0DB8               	rlf	??___flmul,f
  3625     06D4  0DB9               	rlf	??___flmul+1,f
  3626     06D5  0DBA               	rlf	??___flmul+2,f
  3627     06D6  0DBB               	rlf	??___flmul+3,f
  3628     06D7                     u2560:
  3629     06D7  3EFF               	addlw	-1
  3630     06D8  1D03               	skipz
  3631     06D9  2ED2               	goto	u2565
  3632     06DA  0838               	movf	??___flmul,w
  3633     06DB  07C4               	addwf	___flmul@prod,f
  3634     06DC  0839               	movf	??___flmul+1,w
  3635     06DD  1103               	clrz
  3636     06DE  1803               	skipnc
  3637     06DF  3E01               	addlw	1
  3638     06E0  1903               	skipnz
  3639     06E1  2EE3               	goto	u2571
  3640     06E2  07C5               	addwf	___flmul@prod+1,f
  3641     06E3                     u2571:
  3642     06E3  083A               	movf	??___flmul+2,w
  3643     06E4  1103               	clrz
  3644     06E5  1803               	skipnc
  3645     06E6  3E01               	addlw	1
  3646     06E7  1903               	skipnz
  3647     06E8  2EEA               	goto	u2572
  3648     06E9  07C6               	addwf	___flmul@prod+2,f
  3649     06EA                     u2572:
  3650     06EA  083B               	movf	??___flmul+3,w
  3651     06EB  1103               	clrz
  3652     06EC  1803               	skipnc
  3653     06ED  3E01               	addlw	1
  3654     06EE  1903               	skipnz
  3655     06EF  2EF1               	goto	u2573
  3656     06F0  07C7               	addwf	___flmul@prod+3,f
  3657     06F1                     u2573:
  3658     06F1                     l1772:
  3659     06F1  083E               	movf	___flmul@grs,w
  3660     06F2  00B8               	movwf	??___flmul
  3661     06F3  083F               	movf	___flmul@grs+1,w
  3662     06F4  00B9               	movwf	??___flmul+1
  3663     06F5  0840               	movf	___flmul@grs+2,w
  3664     06F6  00BA               	movwf	??___flmul+2
  3665     06F7  0841               	movf	___flmul@grs+3,w
  3666     06F8  00BB               	movwf	??___flmul+3
  3667     06F9  3018               	movlw	24
  3668     06FA                     u2585:
  3669     06FA  1003               	clrc
  3670     06FB  0CBB               	rrf	??___flmul+3,f
  3671     06FC  0CBA               	rrf	??___flmul+2,f
  3672     06FD  0CB9               	rrf	??___flmul+1,f
  3673     06FE  0CB8               	rrf	??___flmul,f
  3674     06FF                     u2580:
  3675     06FF  3EFF               	addlw	-1
  3676     0700  1D03               	skipz
  3677     0701  2EFA               	goto	u2585
  3678     0702  0838               	movf	??___flmul,w
  3679     0703  07C4               	addwf	___flmul@prod,f
  3680     0704  0839               	movf	??___flmul+1,w
  3681     0705  1103               	clrz
  3682     0706  1803               	skipnc
  3683     0707  3E01               	addlw	1
  3684     0708  1903               	skipnz
  3685     0709  2F0B               	goto	u2591
  3686     070A  07C5               	addwf	___flmul@prod+1,f
  3687     070B                     u2591:
  3688     070B  083A               	movf	??___flmul+2,w
  3689     070C  1103               	clrz
  3690     070D  1803               	skipnc
  3691     070E  3E01               	addlw	1
  3692     070F  1903               	skipnz
  3693     0710  2F12               	goto	u2592
  3694     0711  07C6               	addwf	___flmul@prod+2,f
  3695     0712                     u2592:
  3696     0712  083B               	movf	??___flmul+3,w
  3697     0713  1103               	clrz
  3698     0714  1803               	skipnc
  3699     0715  3E01               	addlw	1
  3700     0716  1903               	skipnz
  3701     0717  2F19               	goto	u2593
  3702     0718  07C7               	addwf	___flmul@prod+3,f
  3703     0719                     u2593:
  3704     0719                     l1774:
  3705     0719  3008               	movlw	8
  3706     071A  00B8               	movwf	??___flmul
  3707     071B                     u2605:
  3708     071B  1003               	clrc
  3709     071C  0DBE               	rlf	___flmul@grs,f
  3710     071D  0DBF               	rlf	___flmul@grs+1,f
  3711     071E  0DC0               	rlf	___flmul@grs+2,f
  3712     071F  0DC1               	rlf	___flmul@grs+3,f
  3713     0720  0BB8               	decfsz	??___flmul,f
  3714     0721  2F1B               	goto	u2605
  3715     0722                     l1776:
  3716     0722  0843               	movf	___flmul@bexp,w
  3717     0723  0742               	addwf	___flmul@aexp,w
  3718     0724  00B8               	movwf	??___flmul
  3719     0725  01B9               	clrf	??___flmul+1
  3720     0726  0DB9               	rlf	??___flmul+1,f
  3721     0727  0838               	movf	??___flmul,w
  3722     0728  3E82               	addlw	130
  3723     0729  00C8               	movwf	___flmul@temp
  3724     072A  0839               	movf	??___flmul+1,w
  3725     072B  1803               	skipnc
  3726     072C  3E01               	addlw	1
  3727     072D  3EFF               	addlw	255
  3728     072E  00C9               	movwf	___flmul@temp+1
  3729     072F  2F4D               	goto	l1788
  3730     0730                     l1778:
  3731     0730  3001               	movlw	1
  3732     0731  00B8               	movwf	??___flmul
  3733     0732                     u2615:
  3734     0732  1003               	clrc
  3735     0733  0DC4               	rlf	___flmul@prod,f
  3736     0734  0DC5               	rlf	___flmul@prod+1,f
  3737     0735  0DC6               	rlf	___flmul@prod+2,f
  3738     0736  0DC7               	rlf	___flmul@prod+3,f
  3739     0737  0BB8               	decfsz	??___flmul,f
  3740     0738  2F32               	goto	u2615
  3741     0739                     l1780:
  3742     0739  1FC1               	btfss	___flmul@grs+3,7
  3743     073A  2F3C               	goto	u2621
  3744     073B  2F3D               	goto	u2620
  3745     073C                     u2621:
  3746     073C  2F3E               	goto	l1784
  3747     073D                     u2620:
  3748     073D                     l1782:
  3749     073D  1444               	bsf	___flmul@prod,0
  3750     073E                     l1784:
  3751     073E  3001               	movlw	1
  3752     073F  00B8               	movwf	??___flmul
  3753     0740                     u2635:
  3754     0740  1003               	clrc
  3755     0741  0DBE               	rlf	___flmul@grs,f
  3756     0742  0DBF               	rlf	___flmul@grs+1,f
  3757     0743  0DC0               	rlf	___flmul@grs+2,f
  3758     0744  0DC1               	rlf	___flmul@grs+3,f
  3759     0745  0BB8               	decfsz	??___flmul,f
  3760     0746  2F40               	goto	u2635
  3761     0747                     l1786:
  3762     0747  30FF               	movlw	255
  3763     0748  07C8               	addwf	___flmul@temp,f
  3764     0749  1803               	skipnc
  3765     074A  0AC9               	incf	___flmul@temp+1,f
  3766     074B  30FF               	movlw	255
  3767     074C  07C9               	addwf	___flmul@temp+1,f
  3768     074D                     l1788:
  3769     074D  1FC6               	btfss	___flmul@prod+2,7
  3770     074E  2F50               	goto	u2641
  3771     074F  2F51               	goto	u2640
  3772     0750                     u2641:
  3773     0750  2F30               	goto	l1778
  3774     0751                     u2640:
  3775     0751                     l1790:
  3776     0751  01C2               	clrf	___flmul@aexp
  3777     0752                     l1792:
  3778     0752  1FC1               	btfss	___flmul@grs+3,7
  3779     0753  2F55               	goto	u2651
  3780     0754  2F56               	goto	u2650
  3781     0755                     u2651:
  3782     0755  2F72               	goto	l1800
  3783     0756                     u2650:
  3784     0756                     l1794:
  3785     0756  30FF               	movlw	255
  3786     0757  053E               	andwf	___flmul@grs,w
  3787     0758  00B8               	movwf	??___flmul
  3788     0759  30FF               	movlw	255
  3789     075A  053F               	andwf	___flmul@grs+1,w
  3790     075B  00B9               	movwf	??___flmul+1
  3791     075C  30FF               	movlw	255
  3792     075D  0540               	andwf	___flmul@grs+2,w
  3793     075E  00BA               	movwf	??___flmul+2
  3794     075F  307F               	movlw	127
  3795     0760  0541               	andwf	___flmul@grs+3,w
  3796     0761  00BB               	movwf	??___flmul+3
  3797     0762  083B               	movf	??___flmul+3,w
  3798     0763  043A               	iorwf	??___flmul+2,w
  3799     0764  0439               	iorwf	??___flmul+1,w
  3800     0765  0438               	iorwf	??___flmul,w
  3801     0766  1903               	skipnz
  3802     0767  2F69               	goto	u2661
  3803     0768  2F6A               	goto	u2660
  3804     0769                     u2661:
  3805     0769  2F6D               	goto	l565
  3806     076A                     u2660:
  3807     076A                     l1796:
  3808     076A  3001               	movlw	1
  3809     076B  00C2               	movwf	___flmul@aexp
  3810     076C  2F72               	goto	l1800
  3811     076D                     l565:
  3812     076D  1C44               	btfss	___flmul@prod,0
  3813     076E  2F70               	goto	u2671
  3814     076F  2F71               	goto	u2670
  3815     0770                     u2671:
  3816     0770  2F72               	goto	l1800
  3817     0771                     u2670:
  3818     0771  2F6A               	goto	l1796
  3819     0772                     l1800:
  3820     0772  0842               	movf	___flmul@aexp,w
  3821     0773  1903               	btfsc	3,2
  3822     0774  2F76               	goto	u2681
  3823     0775  2F77               	goto	u2680
  3824     0776                     u2681:
  3825     0776  2FA8               	goto	l1810
  3826     0777                     u2680:
  3827     0777                     l1802:
  3828     0777  3001               	movlw	1
  3829     0778  07C4               	addwf	___flmul@prod,f
  3830     0779  3000               	movlw	0
  3831     077A  1803               	skipnc
  3832     077B  3001               	movlw	1
  3833     077C  07C5               	addwf	___flmul@prod+1,f
  3834     077D  3000               	movlw	0
  3835     077E  1803               	skipnc
  3836     077F  3001               	movlw	1
  3837     0780  07C6               	addwf	___flmul@prod+2,f
  3838     0781  3000               	movlw	0
  3839     0782  1803               	skipnc
  3840     0783  3001               	movlw	1
  3841     0784  07C7               	addwf	___flmul@prod+3,f
  3842     0785                     l1804:
  3843     0785  1C47               	btfss	___flmul@prod+3,0
  3844     0786  2F88               	goto	u2691
  3845     0787  2F89               	goto	u2690
  3846     0788                     u2691:
  3847     0788  2FA8               	goto	l1810
  3848     0789                     u2690:
  3849     0789                     l1806:
  3850     0789  0844               	movf	___flmul@prod,w
  3851     078A  00B8               	movwf	??___flmul
  3852     078B  0845               	movf	___flmul@prod+1,w
  3853     078C  00B9               	movwf	??___flmul+1
  3854     078D  0846               	movf	___flmul@prod+2,w
  3855     078E  00BA               	movwf	??___flmul+2
  3856     078F  0847               	movf	___flmul@prod+3,w
  3857     0790  00BB               	movwf	??___flmul+3
  3858     0791  3001               	movlw	1
  3859     0792  00BC               	movwf	??___flmul+4
  3860     0793                     u2705:
  3861     0793  0D3B               	rlf	??___flmul+3,w
  3862     0794  0CBB               	rrf	??___flmul+3,f
  3863     0795  0CBA               	rrf	??___flmul+2,f
  3864     0796  0CB9               	rrf	??___flmul+1,f
  3865     0797  0CB8               	rrf	??___flmul,f
  3866     0798                     u2700:
  3867     0798  0BBC               	decfsz	??___flmul+4,f
  3868     0799  2F93               	goto	u2705
  3869     079A  083B               	movf	??___flmul+3,w
  3870     079B  00C7               	movwf	___flmul@prod+3
  3871     079C  083A               	movf	??___flmul+2,w
  3872     079D  00C6               	movwf	___flmul@prod+2
  3873     079E  0839               	movf	??___flmul+1,w
  3874     079F  00C5               	movwf	___flmul@prod+1
  3875     07A0  0838               	movf	??___flmul,w
  3876     07A1  00C4               	movwf	___flmul@prod
  3877     07A2                     l1808:
  3878     07A2  3001               	movlw	1
  3879     07A3  07C8               	addwf	___flmul@temp,f
  3880     07A4  1803               	skipnc
  3881     07A5  0AC9               	incf	___flmul@temp+1,f
  3882     07A6  3000               	movlw	0
  3883     07A7  07C9               	addwf	___flmul@temp+1,f
  3884     07A8                     l1810:
  3885     07A8  0849               	movf	___flmul@temp+1,w
  3886     07A9  3A80               	xorlw	128
  3887     07AA  00FF               	movwf	btemp1
  3888     07AB  3080               	movlw	128
  3889     07AC  027F               	subwf	btemp1,w
  3890     07AD  1D03               	skipz
  3891     07AE  2FB1               	goto	u2715
  3892     07AF  30FF               	movlw	255
  3893     07B0  0248               	subwf	___flmul@temp,w
  3894     07B1                     u2715:
  3895     07B1  1C03               	skipc
  3896     07B2  2FB4               	goto	u2711
  3897     07B3  2FB5               	goto	u2710
  3898     07B4                     u2711:
  3899     07B4  2FC0               	goto	l1814
  3900     07B5                     u2710:
  3901     07B5                     l1812:
  3902     07B5  307F               	movlw	127
  3903     07B6  1283               	bcf	3,5	;RP0=0, select bank0
  3904     07B7  1303               	bcf	3,6	;RP1=0, select bank0
  3905     07B8  00C7               	movwf	___flmul@prod+3
  3906     07B9  3080               	movlw	128
  3907     07BA  00C6               	movwf	___flmul@prod+2
  3908     07BB  3000               	movlw	0
  3909     07BC  00C5               	movwf	___flmul@prod+1
  3910     07BD  3000               	movlw	0
  3911     07BE  00C4               	movwf	___flmul@prod
  3912     07BF  2FF1               	goto	l571
  3913     07C0                     l1814:
  3914     07C0  1283               	bcf	3,5	;RP0=0, select bank0
  3915     07C1  1303               	bcf	3,6	;RP1=0, select bank0
  3916     07C2  0849               	movf	___flmul@temp+1,w
  3917     07C3  3A80               	xorlw	128
  3918     07C4  00FF               	movwf	btemp1
  3919     07C5  3080               	movlw	128
  3920     07C6  027F               	subwf	btemp1,w
  3921     07C7  1D03               	skipz
  3922     07C8  2FCB               	goto	u2725
  3923     07C9  3001               	movlw	1
  3924     07CA  0248               	subwf	___flmul@temp,w
  3925     07CB                     u2725:
  3926     07CB  1803               	skipnc
  3927     07CC  2FCE               	goto	u2721
  3928     07CD  2FCF               	goto	u2720
  3929     07CE                     u2721:
  3930     07CE  2FDB               	goto	l1820
  3931     07CF                     u2720:
  3932     07CF                     l1816:
  3933     07CF  3000               	movlw	0
  3934     07D0  1283               	bcf	3,5	;RP0=0, select bank0
  3935     07D1  1303               	bcf	3,6	;RP1=0, select bank0
  3936     07D2  00C7               	movwf	___flmul@prod+3
  3937     07D3  3000               	movlw	0
  3938     07D4  00C6               	movwf	___flmul@prod+2
  3939     07D5  3000               	movlw	0
  3940     07D6  00C5               	movwf	___flmul@prod+1
  3941     07D7  3000               	movlw	0
  3942     07D8  00C4               	movwf	___flmul@prod
  3943     07D9                     l1818:
  3944     07D9  01BD               	clrf	___flmul@sign
  3945     07DA  2FF1               	goto	l571
  3946     07DB                     l1820:
  3947     07DB  1283               	bcf	3,5	;RP0=0, select bank0
  3948     07DC  1303               	bcf	3,6	;RP1=0, select bank0
  3949     07DD  0848               	movf	___flmul@temp,w
  3950     07DE  00C3               	movwf	___flmul@bexp
  3951     07DF  30FF               	movlw	255
  3952     07E0  05C4               	andwf	___flmul@prod,f
  3953     07E1  30FF               	movlw	255
  3954     07E2  05C5               	andwf	___flmul@prod+1,f
  3955     07E3  307F               	movlw	127
  3956     07E4  05C6               	andwf	___flmul@prod+2,f
  3957     07E5  3000               	movlw	0
  3958     07E6  05C7               	andwf	___flmul@prod+3,f
  3959     07E7                     l1822:
  3960     07E7  1C43               	btfss	___flmul@bexp,0
  3961     07E8  2FEA               	goto	u2731
  3962     07E9  2FEB               	goto	u2730
  3963     07EA                     u2731:
  3964     07EA  2FEC               	goto	l1826
  3965     07EB                     u2730:
  3966     07EB                     l1824:
  3967     07EB  17C6               	bsf	___flmul@prod+2,7
  3968     07EC                     l1826:
  3969     07EC  0843               	movf	___flmul@bexp,w
  3970     07ED  00B8               	movwf	??___flmul
  3971     07EE  1003               	clrc
  3972     07EF  0C38               	rrf	??___flmul,w
  3973     07F0  00C7               	movwf	___flmul@prod+3
  3974     07F1                     l571:
  3975     07F1  083D               	movf	___flmul@sign,w
  3976     07F2  04C7               	iorwf	___flmul@prod+3,f
  3977     07F3                     l1828:
  3978     07F3  0847               	movf	___flmul@prod+3,w
  3979     07F4  00B3               	movwf	?___flmul+3
  3980     07F5  0846               	movf	___flmul@prod+2,w
  3981     07F6  00B2               	movwf	?___flmul+2
  3982     07F7  0845               	movf	___flmul@prod+1,w
  3983     07F8  00B1               	movwf	?___flmul+1
  3984     07F9  0844               	movf	___flmul@prod,w
  3985     07FA  00B0               	movwf	?___flmul
  3986     07FB                     l559:
  3987     07FB  0008               	return
  3988     07FC                     __end_of___flmul:
  3989                           
  3990                           	psect	text10
  3991     0C98                     __ptext10:	
  3992 ;; *************** function __Umul8_16 *****************
  3993 ;; Defined at:
  3994 ;;		line 4 in file "C:\Program Files\Microchip\xc8\v3.10\pic\sources\c99\common\Umul8_16.c"
  3995 ;; Parameters:    Size  Location     Type
  3996 ;;  multiplier      1    wreg     unsigned char 
  3997 ;;  multiplicand    1    0[COMMON] unsigned char 
  3998 ;; Auto vars:     Size  Location     Type
  3999 ;;  multiplier      1    8[COMMON] unsigned char 
  4000 ;;  word_mpld       2    6[COMMON] unsigned short 
  4001 ;;  product         2    4[COMMON] unsigned short 
  4002 ;; Return value:  Size  Location     Type
  4003 ;;                  2    0[COMMON] unsigned int 
  4004 ;; Registers used:
  4005 ;;		wreg, status,2, status,0
  4006 ;; Tracked objects:
  4007 ;;		On entry : 0/0
  4008 ;;		On exit  : 0/0
  4009 ;;		Unchanged: 0/0
  4010 ;; Data sizes:     COMMON   BANK0   BANK1   BANK3   BANK2
  4011 ;;      Params:         2       0       0       0       0
  4012 ;;      Locals:         5       0       0       0       0
  4013 ;;      Temps:          2       0       0       0       0
  4014 ;;      Totals:         9       0       0       0       0
  4015 ;;Total ram usage:        9 bytes
  4016 ;; Hardware stack levels used: 1
  4017 ;; This function calls:
  4018 ;;		Nothing
  4019 ;; This function is called by:
  4020 ;;		___flmul
  4021 ;; This function uses a non-reentrant model
  4022 ;;
  4023                           
  4024     0C98                     __Umul8_16:	
  4025                           ;psect for function __Umul8_16
  4026                           
  4027                           
  4028                           ;incstack = 0
  4029                           ; Regs used in __Umul8_16: [wreg+status,2+status,0]
  4030                           ;__Umul8_16@multiplier stored from wreg
  4031     0C98  00F8               	movwf	__Umul8_16@multiplier
  4032     0C99                     l1602:
  4033     0C99  01F4               	clrf	__Umul8_16@product
  4034     0C9A  01F5               	clrf	__Umul8_16@product+1
  4035     0C9B                     l1604:
  4036     0C9B  0870               	movf	__Umul8_16@multiplicand,w
  4037     0C9C  00F2               	movwf	??__Umul8_16
  4038     0C9D  01F3               	clrf	??__Umul8_16+1
  4039     0C9E  0872               	movf	??__Umul8_16,w
  4040     0C9F  00F6               	movwf	__Umul8_16@word_mpld
  4041     0CA0  0873               	movf	??__Umul8_16+1,w
  4042     0CA1  00F7               	movwf	__Umul8_16@word_mpld+1
  4043     0CA2                     l1606:
  4044     0CA2  1C78               	btfss	__Umul8_16@multiplier,0
  4045     0CA3  2CA5               	goto	u2201
  4046     0CA4  2CA6               	goto	u2200
  4047     0CA5                     u2201:
  4048     0CA5  2CAC               	goto	l578
  4049     0CA6                     u2200:
  4050     0CA6                     l1608:
  4051     0CA6  0876               	movf	__Umul8_16@word_mpld,w
  4052     0CA7  07F4               	addwf	__Umul8_16@product,f
  4053     0CA8  1803               	skipnc
  4054     0CA9  0AF5               	incf	__Umul8_16@product+1,f
  4055     0CAA  0877               	movf	__Umul8_16@word_mpld+1,w
  4056     0CAB  07F5               	addwf	__Umul8_16@product+1,f
  4057     0CAC                     l578:
  4058     0CAC  3001               	movlw	1
  4059     0CAD                     u2215:
  4060     0CAD  1003               	clrc
  4061     0CAE  0DF6               	rlf	__Umul8_16@word_mpld,f
  4062     0CAF  0DF7               	rlf	__Umul8_16@word_mpld+1,f
  4063     0CB0  3EFF               	addlw	-1
  4064     0CB1  1D03               	skipz
  4065     0CB2  2CAD               	goto	u2215
  4066     0CB3  1003               	clrc
  4067     0CB4  0CF8               	rrf	__Umul8_16@multiplier,f
  4068     0CB5                     l1610:
  4069     0CB5  0878               	movf	__Umul8_16@multiplier,w
  4070     0CB6  1D03               	btfss	3,2
  4071     0CB7  2CB9               	goto	u2221
  4072     0CB8  2CBA               	goto	u2220
  4073     0CB9                     u2221:
  4074     0CB9  2CA2               	goto	l1606
  4075     0CBA                     u2220:
  4076     0CBA                     l1612:
  4077     0CBA  0875               	movf	__Umul8_16@product+1,w
  4078     0CBB  00F1               	movwf	?__Umul8_16+1
  4079     0CBC  0874               	movf	__Umul8_16@product,w
  4080     0CBD  00F0               	movwf	?__Umul8_16
  4081     0CBE                     l580:
  4082     0CBE  0008               	return
  4083     0CBF                     __end_of__Umul8_16:
  4084                           
  4085                           	psect	text11
  4086     0094                     __ptext11:	
  4087 ;; *************** function ___fldiv *****************
  4088 ;; Defined at:
  4089 ;;		line 8 in file "C:\Program Files\Microchip\xc8\v3.10\pic\sources\c99\common\sprcdiv.c"
  4090 ;; Parameters:    Size  Location     Type
  4091 ;;  a               4   42[BANK0 ] unsigned int 
  4092 ;;  b               4   46[BANK0 ] unsigned int 
  4093 ;; Auto vars:     Size  Location     Type
  4094 ;;  grs             4   62[BANK0 ] unsigned long 
  4095 ;;  rem             4   55[BANK0 ] unsigned long 
  4096 ;;  new_exp         2   60[BANK0 ] short 
  4097 ;;  aexp            1   67[BANK0 ] unsigned char 
  4098 ;;  bexp            1   66[BANK0 ] unsigned char 
  4099 ;;  sign            1   59[BANK0 ] unsigned char 
  4100 ;; Return value:  Size  Location     Type
  4101 ;;                  4   42[BANK0 ] unsigned char 
  4102 ;; Registers used:
  4103 ;;		wreg, status,2, status,0, btemp1
  4104 ;; Tracked objects:
  4105 ;;		On entry : 0/0
  4106 ;;		On exit  : 0/0
  4107 ;;		Unchanged: 0/0
  4108 ;; Data sizes:     COMMON   BANK0   BANK1   BANK3   BANK2
  4109 ;;      Params:         0       8       0       0       0
  4110 ;;      Locals:         0      13       0       0       0
  4111 ;;      Temps:          0       5       0       0       0
  4112 ;;      Totals:         0      26       0       0       0
  4113 ;;Total ram usage:       26 bytes
  4114 ;; Hardware stack levels used: 1
  4115 ;; This function calls:
  4116 ;;		Nothing
  4117 ;; This function is called by:
  4118 ;;		_main
  4119 ;; This function uses a non-reentrant model
  4120 ;;
  4121                           
  4122     0094                     ___fldiv:	
  4123                           ;psect for function ___fldiv
  4124                           
  4125     0094                     l1918:	
  4126                           ;incstack = 0
  4127                           ; Regs used in ___fldiv: [wreg+status,2+status,0+btemp1]
  4128                           
  4129     0094  1283               	bcf	3,5	;RP0=0, select bank0
  4130     0095  1303               	bcf	3,6	;RP1=0, select bank0
  4131     0096  0851               	movf	___fldiv@b+3,w
  4132     0097  00DB               	movwf	___fldiv@sign
  4133     0098                     l1920:
  4134     0098  3080               	movlw	128
  4135     0099  05DB               	andwf	___fldiv@sign,f
  4136     009A                     l1922:
  4137     009A  0851               	movf	___fldiv@b+3,w
  4138     009B  00D2               	movwf	??___fldiv
  4139     009C  0752               	addwf	??___fldiv,w
  4140     009D  00E2               	movwf	___fldiv@bexp
  4141     009E                     l1924:
  4142     009E  1FD0               	btfss	___fldiv@b+2,7
  4143     009F  28A1               	goto	u2921
  4144     00A0  28A2               	goto	u2920
  4145     00A1                     u2921:
  4146     00A1  28A3               	goto	l1928
  4147     00A2                     u2920:
  4148     00A2                     l1926:
  4149     00A2  1462               	bsf	___fldiv@bexp,0
  4150     00A3                     l1928:
  4151     00A3  0862               	movf	___fldiv@bexp,w
  4152     00A4  1903               	btfsc	3,2
  4153     00A5  28A7               	goto	u2931
  4154     00A6  28A8               	goto	u2930
  4155     00A7                     u2931:
  4156     00A7  28B8               	goto	l1938
  4157     00A8                     u2930:
  4158     00A8                     l1930:
  4159     00A8  0A62               	incf	___fldiv@bexp,w
  4160     00A9  1D03               	btfss	3,2
  4161     00AA  28AC               	goto	u2941
  4162     00AB  28AD               	goto	u2940
  4163     00AC                     u2941:
  4164     00AC  28B5               	goto	l1934
  4165     00AD                     u2940:
  4166     00AD                     l1932:
  4167     00AD  3000               	movlw	0
  4168     00AE  00D1               	movwf	___fldiv@b+3
  4169     00AF  3000               	movlw	0
  4170     00B0  00D0               	movwf	___fldiv@b+2
  4171     00B1  3000               	movlw	0
  4172     00B2  00CF               	movwf	___fldiv@b+1
  4173     00B3  3000               	movlw	0
  4174     00B4  00CE               	movwf	___fldiv@b
  4175     00B5                     l1934:
  4176     00B5  17D0               	bsf	___fldiv@b+2,7
  4177     00B6                     l1936:
  4178     00B6  01D1               	clrf	___fldiv@b+3
  4179     00B7  28C0               	goto	l1940
  4180     00B8                     l1938:
  4181     00B8  3000               	movlw	0
  4182     00B9  00D1               	movwf	___fldiv@b+3
  4183     00BA  3000               	movlw	0
  4184     00BB  00D0               	movwf	___fldiv@b+2
  4185     00BC  3000               	movlw	0
  4186     00BD  00CF               	movwf	___fldiv@b+1
  4187     00BE  3000               	movlw	0
  4188     00BF  00CE               	movwf	___fldiv@b
  4189     00C0                     l1940:
  4190     00C0  084D               	movf	___fldiv@a+3,w
  4191     00C1  3980               	andlw	128
  4192     00C2  06DB               	xorwf	___fldiv@sign,f
  4193     00C3                     l1942:
  4194     00C3  084D               	movf	___fldiv@a+3,w
  4195     00C4  00D2               	movwf	??___fldiv
  4196     00C5  0752               	addwf	??___fldiv,w
  4197     00C6  00E3               	movwf	___fldiv@aexp
  4198     00C7                     l1944:
  4199     00C7  1FCC               	btfss	___fldiv@a+2,7
  4200     00C8  28CA               	goto	u2951
  4201     00C9  28CB               	goto	u2950
  4202     00CA                     u2951:
  4203     00CA  28CC               	goto	l1948
  4204     00CB                     u2950:
  4205     00CB                     l1946:
  4206     00CB  1463               	bsf	___fldiv@aexp,0
  4207     00CC                     l1948:
  4208     00CC  0863               	movf	___fldiv@aexp,w
  4209     00CD  1903               	btfsc	3,2
  4210     00CE  28D0               	goto	u2961
  4211     00CF  28D1               	goto	u2960
  4212     00D0                     u2961:
  4213     00D0  28E1               	goto	l1958
  4214     00D1                     u2960:
  4215     00D1                     l1950:
  4216     00D1  0A63               	incf	___fldiv@aexp,w
  4217     00D2  1D03               	btfss	3,2
  4218     00D3  28D5               	goto	u2971
  4219     00D4  28D6               	goto	u2970
  4220     00D5                     u2971:
  4221     00D5  28DE               	goto	l1954
  4222     00D6                     u2970:
  4223     00D6                     l1952:
  4224     00D6  3000               	movlw	0
  4225     00D7  00CD               	movwf	___fldiv@a+3
  4226     00D8  3000               	movlw	0
  4227     00D9  00CC               	movwf	___fldiv@a+2
  4228     00DA  3000               	movlw	0
  4229     00DB  00CB               	movwf	___fldiv@a+1
  4230     00DC  3000               	movlw	0
  4231     00DD  00CA               	movwf	___fldiv@a
  4232     00DE                     l1954:
  4233     00DE  17CC               	bsf	___fldiv@a+2,7
  4234     00DF                     l1956:
  4235     00DF  01CD               	clrf	___fldiv@a+3
  4236     00E0  28E9               	goto	l519
  4237     00E1                     l1958:
  4238     00E1  3000               	movlw	0
  4239     00E2  00CD               	movwf	___fldiv@a+3
  4240     00E3  3000               	movlw	0
  4241     00E4  00CC               	movwf	___fldiv@a+2
  4242     00E5  3000               	movlw	0
  4243     00E6  00CB               	movwf	___fldiv@a+1
  4244     00E7  3000               	movlw	0
  4245     00E8  00CA               	movwf	___fldiv@a
  4246     00E9                     l519:
  4247     00E9  084D               	movf	___fldiv@a+3,w
  4248     00EA  044C               	iorwf	___fldiv@a+2,w
  4249     00EB  044B               	iorwf	___fldiv@a+1,w
  4250     00EC  044A               	iorwf	___fldiv@a,w
  4251     00ED  1D03               	skipz
  4252     00EE  28F0               	goto	u2981
  4253     00EF  28F1               	goto	u2980
  4254     00F0                     u2981:
  4255     00F0  2908               	goto	l1968
  4256     00F1                     u2980:
  4257     00F1                     l1960:
  4258     00F1  3000               	movlw	0
  4259     00F2  00D1               	movwf	___fldiv@b+3
  4260     00F3  3000               	movlw	0
  4261     00F4  00D0               	movwf	___fldiv@b+2
  4262     00F5  3000               	movlw	0
  4263     00F6  00CF               	movwf	___fldiv@b+1
  4264     00F7  3000               	movlw	0
  4265     00F8  00CE               	movwf	___fldiv@b
  4266     00F9  3080               	movlw	128
  4267     00FA  04D0               	iorwf	___fldiv@b+2,f
  4268     00FB  307F               	movlw	127
  4269     00FC  04D1               	iorwf	___fldiv@b+3,f
  4270     00FD                     l1962:
  4271     00FD  085B               	movf	___fldiv@sign,w
  4272     00FE  04D1               	iorwf	___fldiv@b+3,f
  4273     00FF                     l1964:
  4274     00FF  0851               	movf	___fldiv@b+3,w
  4275     0100  00CD               	movwf	?___fldiv+3
  4276     0101  0850               	movf	___fldiv@b+2,w
  4277     0102  00CC               	movwf	?___fldiv+2
  4278     0103  084F               	movf	___fldiv@b+1,w
  4279     0104  00CB               	movwf	?___fldiv+1
  4280     0105  084E               	movf	___fldiv@b,w
  4281     0106  00CA               	movwf	?___fldiv
  4282     0107  2A5D               	goto	l521
  4283     0108                     l1968:
  4284     0108  0862               	movf	___fldiv@bexp,w
  4285     0109  1D03               	btfss	3,2
  4286     010A  290C               	goto	u2991
  4287     010B  290D               	goto	u2990
  4288     010C                     u2991:
  4289     010C  2916               	goto	l1974
  4290     010D                     u2990:
  4291     010D                     l1970:
  4292     010D  3000               	movlw	0
  4293     010E  00CD               	movwf	?___fldiv+3
  4294     010F  3000               	movlw	0
  4295     0110  00CC               	movwf	?___fldiv+2
  4296     0111  3000               	movlw	0
  4297     0112  00CB               	movwf	?___fldiv+1
  4298     0113  3000               	movlw	0
  4299     0114  00CA               	movwf	?___fldiv
  4300     0115  2A5D               	goto	l521
  4301     0116                     l1974:
  4302     0116  0862               	movf	___fldiv@bexp,w
  4303     0117  00D2               	movwf	??___fldiv
  4304     0118  01D3               	clrf	??___fldiv+1
  4305     0119  0853               	movf	??___fldiv+1,w
  4306     011A  00D5               	movwf	??___fldiv+3
  4307     011B  0863               	movf	___fldiv@aexp,w
  4308     011C  0252               	subwf	??___fldiv,w
  4309     011D  00D4               	movwf	??___fldiv+2
  4310     011E  1C03               	skipc
  4311     011F  03D5               	decf	??___fldiv+3,f
  4312     0120  0854               	movf	??___fldiv+2,w
  4313     0121  3E7F               	addlw	127
  4314     0122  00DC               	movwf	___fldiv@new_exp
  4315     0123  0855               	movf	??___fldiv+3,w
  4316     0124  1803               	skipnc
  4317     0125  3E01               	addlw	1
  4318     0126  3E00               	addlw	0
  4319     0127  00DD               	movwf	___fldiv@new_exp+1
  4320     0128                     l1976:
  4321     0128  0851               	movf	___fldiv@b+3,w
  4322     0129  00DA               	movwf	___fldiv@rem+3
  4323     012A  0850               	movf	___fldiv@b+2,w
  4324     012B  00D9               	movwf	___fldiv@rem+2
  4325     012C  084F               	movf	___fldiv@b+1,w
  4326     012D  00D8               	movwf	___fldiv@rem+1
  4327     012E  084E               	movf	___fldiv@b,w
  4328     012F  00D7               	movwf	___fldiv@rem
  4329     0130                     l1978:
  4330     0130  3000               	movlw	0
  4331     0131  00D1               	movwf	___fldiv@b+3
  4332     0132  3000               	movlw	0
  4333     0133  00D0               	movwf	___fldiv@b+2
  4334     0134  3000               	movlw	0
  4335     0135  00CF               	movwf	___fldiv@b+1
  4336     0136  3000               	movlw	0
  4337     0137  00CE               	movwf	___fldiv@b
  4338     0138                     l1980:
  4339     0138  3000               	movlw	0
  4340     0139  00E1               	movwf	___fldiv@grs+3
  4341     013A  3000               	movlw	0
  4342     013B  00E0               	movwf	___fldiv@grs+2
  4343     013C  3000               	movlw	0
  4344     013D  00DF               	movwf	___fldiv@grs+1
  4345     013E  3000               	movlw	0
  4346     013F  00DE               	movwf	___fldiv@grs
  4347     0140                     l1982:
  4348     0140  01E3               	clrf	___fldiv@aexp
  4349     0141  298A               	goto	l2002
  4350     0142                     l1984:
  4351     0142  0863               	movf	___fldiv@aexp,w
  4352     0143  1903               	btfsc	3,2
  4353     0144  2946               	goto	u3001
  4354     0145  2947               	goto	u3000
  4355     0146                     u3001:
  4356     0146  2967               	goto	l1994
  4357     0147                     u3000:
  4358     0147                     l1986:
  4359     0147  3001               	movlw	1
  4360     0148  00D2               	movwf	??___fldiv
  4361     0149                     u3015:
  4362     0149  1003               	clrc
  4363     014A  0DD7               	rlf	___fldiv@rem,f
  4364     014B  0DD8               	rlf	___fldiv@rem+1,f
  4365     014C  0DD9               	rlf	___fldiv@rem+2,f
  4366     014D  0DDA               	rlf	___fldiv@rem+3,f
  4367     014E  0BD2               	decfsz	??___fldiv,f
  4368     014F  2949               	goto	u3015
  4369     0150  3001               	movlw	1
  4370     0151  00D2               	movwf	??___fldiv
  4371     0152                     u3025:
  4372     0152  1003               	clrc
  4373     0153  0DCE               	rlf	___fldiv@b,f
  4374     0154  0DCF               	rlf	___fldiv@b+1,f
  4375     0155  0DD0               	rlf	___fldiv@b+2,f
  4376     0156  0DD1               	rlf	___fldiv@b+3,f
  4377     0157  0BD2               	decfsz	??___fldiv,f
  4378     0158  2952               	goto	u3025
  4379     0159                     l1988:
  4380     0159  1FE1               	btfss	___fldiv@grs+3,7
  4381     015A  295C               	goto	u3031
  4382     015B  295D               	goto	u3030
  4383     015C                     u3031:
  4384     015C  295E               	goto	l1992
  4385     015D                     u3030:
  4386     015D                     l1990:
  4387     015D  144E               	bsf	___fldiv@b,0
  4388     015E                     l1992:
  4389     015E  3001               	movlw	1
  4390     015F  00D2               	movwf	??___fldiv
  4391     0160                     u3045:
  4392     0160  1003               	clrc
  4393     0161  0DDE               	rlf	___fldiv@grs,f
  4394     0162  0DDF               	rlf	___fldiv@grs+1,f
  4395     0163  0DE0               	rlf	___fldiv@grs+2,f
  4396     0164  0DE1               	rlf	___fldiv@grs+3,f
  4397     0165  0BD2               	decfsz	??___fldiv,f
  4398     0166  2960               	goto	u3045
  4399     0167                     l1994:
  4400     0167  084D               	movf	___fldiv@a+3,w
  4401     0168  025A               	subwf	___fldiv@rem+3,w
  4402     0169  1D03               	skipz
  4403     016A  2975               	goto	u3055
  4404     016B  084C               	movf	___fldiv@a+2,w
  4405     016C  0259               	subwf	___fldiv@rem+2,w
  4406     016D  1D03               	skipz
  4407     016E  2975               	goto	u3055
  4408     016F  084B               	movf	___fldiv@a+1,w
  4409     0170  0258               	subwf	___fldiv@rem+1,w
  4410     0171  1D03               	skipz
  4411     0172  2975               	goto	u3055
  4412     0173  084A               	movf	___fldiv@a,w
  4413     0174  0257               	subwf	___fldiv@rem,w
  4414     0175                     u3055:
  4415     0175  1C03               	skipc
  4416     0176  2978               	goto	u3051
  4417     0177  2979               	goto	u3050
  4418     0178                     u3051:
  4419     0178  2988               	goto	l2000
  4420     0179                     u3050:
  4421     0179                     l1996:
  4422     0179  1761               	bsf	___fldiv@grs+3,6
  4423     017A                     l1998:
  4424     017A  084A               	movf	___fldiv@a,w
  4425     017B  02D7               	subwf	___fldiv@rem,f
  4426     017C  084B               	movf	___fldiv@a+1,w
  4427     017D  1C03               	skipc
  4428     017E  0F4B               	incfsz	___fldiv@a+1,w
  4429     017F  02D8               	subwf	___fldiv@rem+1,f
  4430     0180  084C               	movf	___fldiv@a+2,w
  4431     0181  1C03               	skipc
  4432     0182  0F4C               	incfsz	___fldiv@a+2,w
  4433     0183  02D9               	subwf	___fldiv@rem+2,f
  4434     0184  084D               	movf	___fldiv@a+3,w
  4435     0185  1C03               	skipc
  4436     0186  0F4D               	incfsz	___fldiv@a+3,w
  4437     0187  02DA               	subwf	___fldiv@rem+3,f
  4438     0188                     l2000:
  4439     0188  3001               	movlw	1
  4440     0189  07E3               	addwf	___fldiv@aexp,f
  4441     018A                     l2002:
  4442     018A  301A               	movlw	26
  4443     018B  0263               	subwf	___fldiv@aexp,w
  4444     018C  1C03               	skipc
  4445     018D  298F               	goto	u3061
  4446     018E  2990               	goto	u3060
  4447     018F                     u3061:
  4448     018F  2942               	goto	l1984
  4449     0190                     u3060:
  4450     0190                     l2004:
  4451     0190  085A               	movf	___fldiv@rem+3,w
  4452     0191  0459               	iorwf	___fldiv@rem+2,w
  4453     0192  0458               	iorwf	___fldiv@rem+1,w
  4454     0193  0457               	iorwf	___fldiv@rem,w
  4455     0194  1903               	skipnz
  4456     0195  2997               	goto	u3071
  4457     0196  2998               	goto	u3070
  4458     0197                     u3071:
  4459     0197  29B7               	goto	l2018
  4460     0198                     u3070:
  4461     0198                     l2006:
  4462     0198  145E               	bsf	___fldiv@grs,0
  4463     0199  29B7               	goto	l2018
  4464     019A                     l2008:
  4465     019A  3001               	movlw	1
  4466     019B  00D2               	movwf	??___fldiv
  4467     019C                     u3085:
  4468     019C  1003               	clrc
  4469     019D  0DCE               	rlf	___fldiv@b,f
  4470     019E  0DCF               	rlf	___fldiv@b+1,f
  4471     019F  0DD0               	rlf	___fldiv@b+2,f
  4472     01A0  0DD1               	rlf	___fldiv@b+3,f
  4473     01A1  0BD2               	decfsz	??___fldiv,f
  4474     01A2  299C               	goto	u3085
  4475     01A3                     l2010:
  4476     01A3  1FE1               	btfss	___fldiv@grs+3,7
  4477     01A4  29A6               	goto	u3091
  4478     01A5  29A7               	goto	u3090
  4479     01A6                     u3091:
  4480     01A6  29A8               	goto	l2014
  4481     01A7                     u3090:
  4482     01A7                     l2012:
  4483     01A7  144E               	bsf	___fldiv@b,0
  4484     01A8                     l2014:
  4485     01A8  3001               	movlw	1
  4486     01A9  00D2               	movwf	??___fldiv
  4487     01AA                     u3105:
  4488     01AA  1003               	clrc
  4489     01AB  0DDE               	rlf	___fldiv@grs,f
  4490     01AC  0DDF               	rlf	___fldiv@grs+1,f
  4491     01AD  0DE0               	rlf	___fldiv@grs+2,f
  4492     01AE  0DE1               	rlf	___fldiv@grs+3,f
  4493     01AF  0BD2               	decfsz	??___fldiv,f
  4494     01B0  29AA               	goto	u3105
  4495     01B1                     l2016:
  4496     01B1  30FF               	movlw	255
  4497     01B2  07DC               	addwf	___fldiv@new_exp,f
  4498     01B3  1803               	skipnc
  4499     01B4  0ADD               	incf	___fldiv@new_exp+1,f
  4500     01B5  30FF               	movlw	255
  4501     01B6  07DD               	addwf	___fldiv@new_exp+1,f
  4502     01B7                     l2018:
  4503     01B7  1FD0               	btfss	___fldiv@b+2,7
  4504     01B8  29BA               	goto	u3111
  4505     01B9  29BB               	goto	u3110
  4506     01BA                     u3111:
  4507     01BA  299A               	goto	l2008
  4508     01BB                     u3110:
  4509     01BB                     l2020:
  4510     01BB  01E3               	clrf	___fldiv@aexp
  4511     01BC                     l2022:
  4512     01BC  1FE1               	btfss	___fldiv@grs+3,7
  4513     01BD  29BF               	goto	u3121
  4514     01BE  29C0               	goto	u3120
  4515     01BF                     u3121:
  4516     01BF  29DC               	goto	l2030
  4517     01C0                     u3120:
  4518     01C0                     l2024:
  4519     01C0  30FF               	movlw	255
  4520     01C1  055E               	andwf	___fldiv@grs,w
  4521     01C2  00D2               	movwf	??___fldiv
  4522     01C3  30FF               	movlw	255
  4523     01C4  055F               	andwf	___fldiv@grs+1,w
  4524     01C5  00D3               	movwf	??___fldiv+1
  4525     01C6  30FF               	movlw	255
  4526     01C7  0560               	andwf	___fldiv@grs+2,w
  4527     01C8  00D4               	movwf	??___fldiv+2
  4528     01C9  307F               	movlw	127
  4529     01CA  0561               	andwf	___fldiv@grs+3,w
  4530     01CB  00D5               	movwf	??___fldiv+3
  4531     01CC  0855               	movf	??___fldiv+3,w
  4532     01CD  0454               	iorwf	??___fldiv+2,w
  4533     01CE  0453               	iorwf	??___fldiv+1,w
  4534     01CF  0452               	iorwf	??___fldiv,w
  4535     01D0  1903               	skipnz
  4536     01D1  29D3               	goto	u3131
  4537     01D2  29D4               	goto	u3130
  4538     01D3                     u3131:
  4539     01D3  29D7               	goto	l535
  4540     01D4                     u3130:
  4541     01D4                     l2026:
  4542     01D4  3001               	movlw	1
  4543     01D5  00E3               	movwf	___fldiv@aexp
  4544     01D6  29DC               	goto	l2030
  4545     01D7                     l535:
  4546     01D7  1C4E               	btfss	___fldiv@b,0
  4547     01D8  29DA               	goto	u3141
  4548     01D9  29DB               	goto	u3140
  4549     01DA                     u3141:
  4550     01DA  29DC               	goto	l2030
  4551     01DB                     u3140:
  4552     01DB  29D4               	goto	l2026
  4553     01DC                     l2030:
  4554     01DC  0863               	movf	___fldiv@aexp,w
  4555     01DD  1903               	btfsc	3,2
  4556     01DE  29E0               	goto	u3151
  4557     01DF  29E1               	goto	u3150
  4558     01E0                     u3151:
  4559     01E0  2A12               	goto	l2040
  4560     01E1                     u3150:
  4561     01E1                     l2032:
  4562     01E1  3001               	movlw	1
  4563     01E2  07CE               	addwf	___fldiv@b,f
  4564     01E3  3000               	movlw	0
  4565     01E4  1803               	skipnc
  4566     01E5  3001               	movlw	1
  4567     01E6  07CF               	addwf	___fldiv@b+1,f
  4568     01E7  3000               	movlw	0
  4569     01E8  1803               	skipnc
  4570     01E9  3001               	movlw	1
  4571     01EA  07D0               	addwf	___fldiv@b+2,f
  4572     01EB  3000               	movlw	0
  4573     01EC  1803               	skipnc
  4574     01ED  3001               	movlw	1
  4575     01EE  07D1               	addwf	___fldiv@b+3,f
  4576     01EF                     l2034:
  4577     01EF  1C51               	btfss	___fldiv@b+3,0
  4578     01F0  29F2               	goto	u3161
  4579     01F1  29F3               	goto	u3160
  4580     01F2                     u3161:
  4581     01F2  2A12               	goto	l2040
  4582     01F3                     u3160:
  4583     01F3                     l2036:
  4584     01F3  084E               	movf	___fldiv@b,w
  4585     01F4  00D2               	movwf	??___fldiv
  4586     01F5  084F               	movf	___fldiv@b+1,w
  4587     01F6  00D3               	movwf	??___fldiv+1
  4588     01F7  0850               	movf	___fldiv@b+2,w
  4589     01F8  00D4               	movwf	??___fldiv+2
  4590     01F9  0851               	movf	___fldiv@b+3,w
  4591     01FA  00D5               	movwf	??___fldiv+3
  4592     01FB  3001               	movlw	1
  4593     01FC  00D6               	movwf	??___fldiv+4
  4594     01FD                     u3175:
  4595     01FD  0D55               	rlf	??___fldiv+3,w
  4596     01FE  0CD5               	rrf	??___fldiv+3,f
  4597     01FF  0CD4               	rrf	??___fldiv+2,f
  4598     0200  0CD3               	rrf	??___fldiv+1,f
  4599     0201  0CD2               	rrf	??___fldiv,f
  4600     0202                     u3170:
  4601     0202  0BD6               	decfsz	??___fldiv+4,f
  4602     0203  29FD               	goto	u3175
  4603     0204  0855               	movf	??___fldiv+3,w
  4604     0205  00D1               	movwf	___fldiv@b+3
  4605     0206  0854               	movf	??___fldiv+2,w
  4606     0207  00D0               	movwf	___fldiv@b+2
  4607     0208  0853               	movf	??___fldiv+1,w
  4608     0209  00CF               	movwf	___fldiv@b+1
  4609     020A  0852               	movf	??___fldiv,w
  4610     020B  00CE               	movwf	___fldiv@b
  4611     020C                     l2038:
  4612     020C  3001               	movlw	1
  4613     020D  07DC               	addwf	___fldiv@new_exp,f
  4614     020E  1803               	skipnc
  4615     020F  0ADD               	incf	___fldiv@new_exp+1,f
  4616     0210  3000               	movlw	0
  4617     0211  07DD               	addwf	___fldiv@new_exp+1,f
  4618     0212                     l2040:
  4619     0212  085D               	movf	___fldiv@new_exp+1,w
  4620     0213  3A80               	xorlw	128
  4621     0214  00FF               	movwf	btemp1
  4622     0215  3080               	movlw	128
  4623     0216  027F               	subwf	btemp1,w
  4624     0217  1D03               	skipz
  4625     0218  2A1B               	goto	u3185
  4626     0219  30FF               	movlw	255
  4627     021A  025C               	subwf	___fldiv@new_exp,w
  4628     021B                     u3185:
  4629     021B  1C03               	skipc
  4630     021C  2A1E               	goto	u3181
  4631     021D  2A1F               	goto	u3180
  4632     021E                     u3181:
  4633     021E  2A2D               	goto	l2044
  4634     021F                     u3180:
  4635     021F                     l2042:
  4636     021F  30FF               	movlw	255
  4637     0220  1283               	bcf	3,5	;RP0=0, select bank0
  4638     0221  1303               	bcf	3,6	;RP1=0, select bank0
  4639     0222  00DC               	movwf	___fldiv@new_exp
  4640     0223  3000               	movlw	0
  4641     0224  00DD               	movwf	___fldiv@new_exp+1
  4642     0225  3000               	movlw	0
  4643     0226  00D1               	movwf	___fldiv@b+3
  4644     0227  3000               	movlw	0
  4645     0228  00D0               	movwf	___fldiv@b+2
  4646     0229  3000               	movlw	0
  4647     022A  00CF               	movwf	___fldiv@b+1
  4648     022B  3000               	movlw	0
  4649     022C  00CE               	movwf	___fldiv@b
  4650     022D                     l2044:
  4651     022D  1283               	bcf	3,5	;RP0=0, select bank0
  4652     022E  1303               	bcf	3,6	;RP1=0, select bank0
  4653     022F  085D               	movf	___fldiv@new_exp+1,w
  4654     0230  3A80               	xorlw	128
  4655     0231  00FF               	movwf	btemp1
  4656     0232  3080               	movlw	128
  4657     0233  027F               	subwf	btemp1,w
  4658     0234  1D03               	skipz
  4659     0235  2A38               	goto	u3195
  4660     0236  3001               	movlw	1
  4661     0237  025C               	subwf	___fldiv@new_exp,w
  4662     0238                     u3195:
  4663     0238  1803               	skipnc
  4664     0239  2A3B               	goto	u3191
  4665     023A  2A3C               	goto	u3190
  4666     023B                     u3191:
  4667     023B  2A49               	goto	l541
  4668     023C                     u3190:
  4669     023C                     l2046:
  4670     023C  1283               	bcf	3,5	;RP0=0, select bank0
  4671     023D  1303               	bcf	3,6	;RP1=0, select bank0
  4672     023E  01DC               	clrf	___fldiv@new_exp
  4673     023F  01DD               	clrf	___fldiv@new_exp+1
  4674     0240                     l2048:
  4675     0240  3000               	movlw	0
  4676     0241  00D1               	movwf	___fldiv@b+3
  4677     0242  3000               	movlw	0
  4678     0243  00D0               	movwf	___fldiv@b+2
  4679     0244  3000               	movlw	0
  4680     0245  00CF               	movwf	___fldiv@b+1
  4681     0246  3000               	movlw	0
  4682     0247  00CE               	movwf	___fldiv@b
  4683     0248                     l2050:
  4684     0248  01DB               	clrf	___fldiv@sign
  4685     0249                     l541:
  4686     0249  1283               	bcf	3,5	;RP0=0, select bank0
  4687     024A  1303               	bcf	3,6	;RP1=0, select bank0
  4688     024B  085C               	movf	___fldiv@new_exp,w
  4689     024C  00E2               	movwf	___fldiv@bexp
  4690     024D                     l2052:
  4691     024D  1C62               	btfss	___fldiv@bexp,0
  4692     024E  2A50               	goto	u3201
  4693     024F  2A51               	goto	u3200
  4694     0250                     u3201:
  4695     0250  2A53               	goto	l2056
  4696     0251                     u3200:
  4697     0251                     l2054:
  4698     0251  17D0               	bsf	___fldiv@b+2,7
  4699     0252  2A55               	goto	l543
  4700     0253                     l2056:
  4701     0253  307F               	movlw	127
  4702     0254  05D0               	andwf	___fldiv@b+2,f
  4703     0255                     l543:
  4704     0255  0862               	movf	___fldiv@bexp,w
  4705     0256  00D2               	movwf	??___fldiv
  4706     0257  1003               	clrc
  4707     0258  0C52               	rrf	??___fldiv,w
  4708     0259  00D1               	movwf	___fldiv@b+3
  4709     025A  085B               	movf	___fldiv@sign,w
  4710     025B  04D1               	iorwf	___fldiv@b+3,f
  4711     025C  28FF               	goto	l1964
  4712     025D                     l521:
  4713     025D  0008               	return
  4714     025E                     __end_of___fldiv:
  4715                           
  4716                           	psect	text12
  4717     0C4B                     __ptext12:	
  4718 ;; *************** function _UART_TxString *****************
  4719 ;; Defined at:
  4720 ;;		line 62 in file "newmain.c"
  4721 ;; Parameters:    Size  Location     Type
  4722 ;;  str             2    1[COMMON] PTR const unsigned char 
  4723 ;;		 -> STR_4(7), STR_3(10), STR_2(7), main@temp_str(10), 
  4724 ;;		 -> main@adc_str(6), STR_1(18), 
  4725 ;; Auto vars:     Size  Location     Type
  4726 ;;		None
  4727 ;; Return value:  Size  Location     Type
  4728 ;;                  1    wreg      void 
  4729 ;; Registers used:
  4730 ;;		wreg, fsr0l, fsr0h, status,2, status,0, pclath, btemp1, cstack
  4731 ;; Tracked objects:
  4732 ;;		On entry : 0/0
  4733 ;;		On exit  : 0/0
  4734 ;;		Unchanged: 0/0
  4735 ;; Data sizes:     COMMON   BANK0   BANK1   BANK3   BANK2
  4736 ;;      Params:         2       0       0       0       0
  4737 ;;      Locals:         0       0       0       0       0
  4738 ;;      Temps:          0       0       0       0       0
  4739 ;;      Totals:         2       0       0       0       0
  4740 ;;Total ram usage:        2 bytes
  4741 ;; Hardware stack levels used: 1
  4742 ;; Hardware stack levels required when called: 1
  4743 ;; This function calls:
  4744 ;;		_UART_TxChar
  4745 ;; This function is called by:
  4746 ;;		_main
  4747 ;; This function uses a non-reentrant model
  4748 ;;
  4749                           
  4750     0C4B                     _UART_TxString:	
  4751                           ;psect for function _UART_TxString
  4752                           
  4753     0C4B                     l1876:	
  4754                           ;incstack = 0
  4755                           ; Regs used in _UART_TxString: [wreg-fsr0h+status,2+status,0+pclath+btemp1+cstack]
  4756                           
  4757                           
  4758                           ;newmain.c: 62: void UART_TxString(const char *str);newmain.c: 63: {;newmain.c: 64:     
      +                          while(*str)
  4759     0C4B  2C60               	goto	l1882
  4760     0C4C                     l1878:
  4761                           
  4762                           ;newmain.c: 65:     {;newmain.c: 66:         UART_TxChar(*str++);
  4763     0C4C  0872               	movf	UART_TxString@str+1,w
  4764     0C4D  00FF               	movwf	btemp1
  4765     0C4E  0871               	movf	UART_TxString@str,w
  4766     0C4F  0084               	movwf	4
  4767     0C50  120A  158A  2000  120A  158A  	fcall	stringtab
  4768     0C55  120A  158A  241D  120A  158A  	fcall	_UART_TxChar
  4769     0C5A                     l1880:
  4770     0C5A  3001               	movlw	1
  4771     0C5B  07F1               	addwf	UART_TxString@str,f
  4772     0C5C  1803               	skipnc
  4773     0C5D  0AF2               	incf	UART_TxString@str+1,f
  4774     0C5E  3000               	movlw	0
  4775     0C5F  07F2               	addwf	UART_TxString@str+1,f
  4776     0C60                     l1882:
  4777                           
  4778                           ;newmain.c: 64:     while(*str)
  4779     0C60  0872               	movf	UART_TxString@str+1,w
  4780     0C61  1283               	bcf	3,5	;RP0=0, select bank0
  4781     0C62  1303               	bcf	3,6	;RP1=0, select bank0
  4782     0C63  00FF               	movwf	btemp1
  4783     0C64  0871               	movf	UART_TxString@str,w
  4784     0C65  0084               	movwf	4
  4785     0C66  120A  158A  2000  120A  158A  	fcall	stringtab
  4786     0C6B  3A00               	xorlw	0
  4787     0C6C  1D03               	skipz
  4788     0C6D  2C6F               	goto	u2881
  4789     0C6E  2C70               	goto	u2880
  4790     0C6F                     u2881:
  4791     0C6F  2C4C               	goto	l1878
  4792     0C70                     u2880:
  4793     0C70                     l43:
  4794     0C70  0008               	return
  4795     0C71                     __end_of_UART_TxString:
  4796                           
  4797                           	psect	text13
  4798     0C1D                     __ptext13:	
  4799 ;; *************** function _UART_TxChar *****************
  4800 ;; Defined at:
  4801 ;;		line 55 in file "newmain.c"
  4802 ;; Parameters:    Size  Location     Type
  4803 ;;  data            1    wreg     unsigned char 
  4804 ;; Auto vars:     Size  Location     Type
  4805 ;;  data            1    0[COMMON] unsigned char 
  4806 ;; Return value:  Size  Location     Type
  4807 ;;                  1    wreg      void 
  4808 ;; Registers used:
  4809 ;;		wreg
  4810 ;; Tracked objects:
  4811 ;;		On entry : 0/0
  4812 ;;		On exit  : 0/0
  4813 ;;		Unchanged: 0/0
  4814 ;; Data sizes:     COMMON   BANK0   BANK1   BANK3   BANK2
  4815 ;;      Params:         0       0       0       0       0
  4816 ;;      Locals:         1       0       0       0       0
  4817 ;;      Temps:          0       0       0       0       0
  4818 ;;      Totals:         1       0       0       0       0
  4819 ;;Total ram usage:        1 bytes
  4820 ;; Hardware stack levels used: 1
  4821 ;; This function calls:
  4822 ;;		Nothing
  4823 ;; This function is called by:
  4824 ;;		_UART_TxString
  4825 ;; This function uses a non-reentrant model
  4826 ;;
  4827                           
  4828     0C1D                     _UART_TxChar:	
  4829                           ;psect for function _UART_TxChar
  4830                           
  4831                           
  4832                           ;incstack = 0
  4833                           ; Regs used in _UART_TxChar: [wreg]
  4834                           ;UART_TxChar@data stored from wreg
  4835     0C1D  00F0               	movwf	UART_TxChar@data
  4836     0C1E                     l1616:
  4837     0C1E                     l34:	
  4838                           ;newmain.c: 55: void UART_TxChar(char data);newmain.c: 56: {;newmain.c: 57:     while(!T
      +                          XIF);
  4839                           
  4840     0C1E  1283               	bcf	3,5	;RP0=0, select bank0
  4841     0C1F  1303               	bcf	3,6	;RP1=0, select bank0
  4842     0C20  1E0C               	btfss	12,4	;volatile
  4843     0C21  2C23               	goto	u2231
  4844     0C22  2C24               	goto	u2230
  4845     0C23                     u2231:
  4846     0C23  2C1E               	goto	l34
  4847     0C24                     u2230:
  4848     0C24                     l1618:
  4849                           
  4850                           ;newmain.c: 58:     TXREG = data;
  4851     0C24  0870               	movf	UART_TxChar@data,w
  4852     0C25  0099               	movwf	25	;volatile
  4853     0C26                     l37:
  4854     0C26  0008               	return
  4855     0C27                     __end_of_UART_TxChar:
  4856                           
  4857                           	psect	text14
  4858     0004                     __ptext14:	
  4859 ;; *************** function _UART_Init *****************
  4860 ;; Defined at:
  4861 ;;		line 14 in file "newmain.c"
  4862 ;; Parameters:    Size  Location     Type
  4863 ;;		None
  4864 ;; Auto vars:     Size  Location     Type
  4865 ;;		None
  4866 ;; Return value:  Size  Location     Type
  4867 ;;                  1    wreg      void 
  4868 ;; Registers used:
  4869 ;;		None
  4870 ;; Tracked objects:
  4871 ;;		On entry : 0/0
  4872 ;;		On exit  : 0/0
  4873 ;;		Unchanged: 0/0
  4874 ;; Data sizes:     COMMON   BANK0   BANK1   BANK3   BANK2
  4875 ;;      Params:         0       0       0       0       0
  4876 ;;      Locals:         0       0       0       0       0
  4877 ;;      Temps:          0       0       0       0       0
  4878 ;;      Totals:         0       0       0       0       0
  4879 ;;Total ram usage:        0 bytes
  4880 ;; Hardware stack levels used: 1
  4881 ;; This function calls:
  4882 ;;		Nothing
  4883 ;; This function is called by:
  4884 ;;		_main
  4885 ;; This function uses a non-reentrant model
  4886 ;;
  4887                           
  4888     0004                     _UART_Init:	
  4889                           ;psect for function _UART_Init
  4890                           
  4891     0004                     l1874:	
  4892                           ;incstack = 0
  4893                           ; Regs used in _UART_Init: []
  4894                           
  4895     0004  3019               	movlw	25
  4896     0005  1683               	bsf	3,5	;RP0=1, select bank1
  4897     0006  1303               	bcf	3,6	;RP1=0, select bank1
  4898     0007  0099               	movwf	25	;volatile
  4899                           
  4900                           ;newmain.c: 34:     TXSTA = 0x24;
  4901     0008  3024               	movlw	36
  4902     0009  0098               	movwf	24	;volatile
  4903                           
  4904                           ;newmain.c: 48:     RCSTA = 0x90;
  4905     000A  3090               	movlw	144
  4906     000B  1283               	bcf	3,5	;RP0=0, select bank0
  4907     000C  1303               	bcf	3,6	;RP1=0, select bank0
  4908     000D  0098               	movwf	24	;volatile
  4909                           
  4910                           ;newmain.c: 50:     TRISC6 = 0;
  4911     000E  1683               	bsf	3,5	;RP0=1, select bank1
  4912     000F  1303               	bcf	3,6	;RP1=0, select bank1
  4913     0010  1307               	bcf	7,6	;volatile
  4914                           
  4915                           ;newmain.c: 51:     TRISC7 = 1;
  4916     0011  1787               	bsf	7,7	;volatile
  4917     0012                     l31:
  4918     0012  0008               	return
  4919     0013                     __end_of_UART_Init:
  4920                           
  4921                           	psect	text15
  4922     0C71                     __ptext15:	
  4923 ;; *************** function _ADC_Read *****************
  4924 ;; Defined at:
  4925 ;;		line 96 in file "newmain.c"
  4926 ;; Parameters:    Size  Location     Type
  4927 ;;  channel         1    wreg     unsigned char 
  4928 ;; Auto vars:     Size  Location     Type
  4929 ;;  channel         1    4[COMMON] unsigned char 
  4930 ;; Return value:  Size  Location     Type
  4931 ;;                  2    0[COMMON] unsigned int 
  4932 ;; Registers used:
  4933 ;;		wreg, status,2, status,0
  4934 ;; Tracked objects:
  4935 ;;		On entry : 0/0
  4936 ;;		On exit  : 0/0
  4937 ;;		Unchanged: 0/0
  4938 ;; Data sizes:     COMMON   BANK0   BANK1   BANK3   BANK2
  4939 ;;      Params:         2       0       0       0       0
  4940 ;;      Locals:         1       0       0       0       0
  4941 ;;      Temps:          2       0       0       0       0
  4942 ;;      Totals:         5       0       0       0       0
  4943 ;;Total ram usage:        5 bytes
  4944 ;; Hardware stack levels used: 1
  4945 ;; This function calls:
  4946 ;;		Nothing
  4947 ;; This function is called by:
  4948 ;;		_main
  4949 ;; This function uses a non-reentrant model
  4950 ;;
  4951                           
  4952     0C71                     _ADC_Read:	
  4953                           ;psect for function _ADC_Read
  4954                           
  4955                           
  4956                           ;incstack = 0
  4957                           ; Regs used in _ADC_Read: [wreg+status,2+status,0]
  4958                           ;ADC_Read@channel stored from wreg
  4959     0C71  00F4               	movwf	ADC_Read@channel
  4960     0C72                     l1886:
  4961                           
  4962                           ;newmain.c: 96: unsigned int ADC_Read(unsigned char channel);newmain.c: 97: {;newmain.c:
      +                           99:     ADCON0 &= 0xC5;
  4963     0C72  30C5               	movlw	197
  4964     0C73  1283               	bcf	3,5	;RP0=0, select bank0
  4965     0C74  1303               	bcf	3,6	;RP1=0, select bank0
  4966     0C75  059F               	andwf	31,f	;volatile
  4967                           
  4968                           ;newmain.c: 100:     ADCON0 |= (channel << 3);
  4969     0C76  0874               	movf	ADC_Read@channel,w	;volatile
  4970     0C77  00F2               	movwf	??_ADC_Read
  4971     0C78  3002               	movlw	2
  4972     0C79                     u2895:
  4973     0C79  1003               	clrc
  4974     0C7A  0DF2               	rlf	??_ADC_Read,f
  4975     0C7B  3EFF               	addlw	-1
  4976     0C7C  1D03               	skipz
  4977     0C7D  2C79               	goto	u2895
  4978     0C7E  1003               	clrc
  4979     0C7F  0D72               	rlf	??_ADC_Read,w
  4980     0C80  049F               	iorwf	31,f	;volatile
  4981     0C81                     l1888:
  4982                           
  4983                           ;newmain.c: 101:     _delay((unsigned long)((2)*(4000000/4000.0)));
  4984     0C81  3003               	movlw	3
  4985     0C82  00F3               	movwf	??_ADC_Read+1
  4986     0C83  3097               	movlw	151
  4987     0C84  00F2               	movwf	??_ADC_Read
  4988     0C85                     u3237:
  4989     0C85  0BF2               	decfsz	??_ADC_Read,f
  4990     0C86  2C85               	goto	u3237
  4991     0C87  0BF3               	decfsz	??_ADC_Read+1,f
  4992     0C88  2C85               	goto	u3237
  4993     0C89  2C8A               	nop2
  4994     0C8A                     l1890:
  4995                           
  4996                           ;newmain.c: 103:     GO_nDONE = 1;
  4997     0C8A  1283               	bcf	3,5	;RP0=0, select bank0
  4998     0C8B  1303               	bcf	3,6	;RP1=0, select bank0
  4999     0C8C  151F               	bsf	31,2	;volatile
  5000     0C8D                     l49:	
  5001                           ;newmain.c: 104:     while(GO_nDONE);
  5002                           
  5003     0C8D  191F               	btfsc	31,2	;volatile
  5004     0C8E  2C90               	goto	u2901
  5005     0C8F  2C91               	goto	u2900
  5006     0C90                     u2901:
  5007     0C90  2C8D               	goto	l49
  5008     0C91                     u2900:
  5009     0C91                     l1892:
  5010                           
  5011                           ;newmain.c: 106:     return ((ADRESH << 8) + ADRESL);
  5012     0C91  081E               	movf	30,w	;volatile
  5013     0C92  00F1               	movwf	?_ADC_Read+1
  5014     0C93  1683               	bsf	3,5	;RP0=1, select bank1
  5015     0C94  1303               	bcf	3,6	;RP1=0, select bank1
  5016     0C95  081E               	movf	30,w	;volatile
  5017     0C96  00F0               	movwf	?_ADC_Read
  5018     0C97                     l52:
  5019     0C97  0008               	return
  5020     0C98                     __end_of_ADC_Read:
  5021                           
  5022                           	psect	text16
  5023     0C14                     __ptext16:	
  5024 ;; *************** function _ADC_Init *****************
  5025 ;; Defined at:
  5026 ;;		line 71 in file "newmain.c"
  5027 ;; Parameters:    Size  Location     Type
  5028 ;;		None
  5029 ;; Auto vars:     Size  Location     Type
  5030 ;;		None
  5031 ;; Return value:  Size  Location     Type
  5032 ;;                  1    wreg      void 
  5033 ;; Registers used:
  5034 ;;		None
  5035 ;; Tracked objects:
  5036 ;;		On entry : 0/0
  5037 ;;		On exit  : 0/0
  5038 ;;		Unchanged: 0/0
  5039 ;; Data sizes:     COMMON   BANK0   BANK1   BANK3   BANK2
  5040 ;;      Params:         0       0       0       0       0
  5041 ;;      Locals:         0       0       0       0       0
  5042 ;;      Temps:          0       0       0       0       0
  5043 ;;      Totals:         0       0       0       0       0
  5044 ;;Total ram usage:        0 bytes
  5045 ;; Hardware stack levels used: 1
  5046 ;; This function calls:
  5047 ;;		Nothing
  5048 ;; This function is called by:
  5049 ;;		_main
  5050 ;; This function uses a non-reentrant model
  5051 ;;
  5052                           
  5053     0C14                     _ADC_Init:	
  5054                           ;psect for function _ADC_Init
  5055                           
  5056     0C14                     l1884:	
  5057                           ;incstack = 0
  5058                           ; Regs used in _ADC_Init: []
  5059                           
  5060                           
  5061                           ;newmain.c: 81:     ADCON1 = 0x80;
  5062     0C14  3080               	movlw	128
  5063     0C15  1683               	bsf	3,5	;RP0=1, select bank1
  5064     0C16  1303               	bcf	3,6	;RP1=0, select bank1
  5065     0C17  009F               	movwf	31	;volatile
  5066                           
  5067                           ;newmain.c: 92:     ADCON0 = 0x81;
  5068     0C18  3081               	movlw	129
  5069     0C19  1283               	bcf	3,5	;RP0=0, select bank0
  5070     0C1A  1303               	bcf	3,6	;RP1=0, select bank0
  5071     0C1B  009F               	movwf	31	;volatile
  5072     0C1C                     l46:
  5073     0C1C  0008               	return
  5074     0C1D                     __end_of_ADC_Init:
  5075     0002                     ___latbits      equ	2
  5076     007E                     btemp           set	126	;btemp
  5077     007E                     btemp0          set	126
  5078     007F                     btemp1          set	127
  5079     007E                     wtemp0          set	126
  5080     007F                     wtemp0a         set	127
  5081     007F                     ttemp0a         set	127
  5082     0080                     ltemp0a         set	128
  5083                           
  5084                           	psect	config
  5085                           
  5086                           ;Config register CONFIG @ 0x2007
  5087                           ;	Oscillator Selection bits
  5088                           ;	FOSC = XT, XT oscillator
  5089                           ;	Watchdog Timer Enable bit
  5090                           ;	WDTE = OFF, WDT disabled
  5091                           ;	Power-up Timer Enable bit
  5092                           ;	PWRTE = ON, PWRT enabled
  5093                           ;	Brown-out Reset Enable bit
  5094                           ;	BOREN = ON, BOR enabled
  5095                           ;	Low-Voltage (Single-Supply) In-Circuit Serial Programming Enable bit
  5096                           ;	LVP = OFF, RB3 is digital I/O, HV on MCLR must be used for programming
  5097                           ;	Data EEPROM Memory Code Protection bit
  5098                           ;	CPD = OFF, Data EEPROM code protection off
  5099                           ;	Flash Program Memory Write Enable bits
  5100                           ;	WRT = OFF, Write protection off; all program memory may be written to by EECON control
  5101                           ;	In-Circuit Debugger Mode bit
  5102                           ;	DEBUG = 0x1, unprogrammed default
  5103                           ;	Flash Program Memory Code Protection bit
  5104                           ;	CP = OFF, Code protection off
  5105     2007                     	org	8199
  5106     2007  3F71               	dw	16241

Data Sizes:
    Strings     42
    Constant    0
    Data        0
    BSS         0
    Persistent  0
    Stack       0

Auto Spaces:
    Space          Size  Autos    Used
    COMMON           14     14      14
    BANK0            80     73      73
    BANK1            80     22      22
    BANK3            96      0       0
    BANK2            96      0       0

Pointer List with Targets:

    floatToString@str	PTR unsigned char  size(1) Largest target is 10
		 -> main@temp_str(BANK1[10]), 

    intToString@str	PTR unsigned char  size(1) Largest target is 6
		 -> floatToString@temp(BANK0[6]), main@adc_str(BANK1[6]), 

    UART_TxString@str	PTR const unsigned char  size(2) Largest target is 18
		 -> main@adc_str(BANK1[6]), main@temp_str(BANK1[10]), STR_1(CODE[18]), STR_2(CODE[7]), 
		 -> STR_3(CODE[10]), STR_4(CODE[7]), 


Critical Paths under _main in COMMON

    _main->___xxtofl
    _floatToString->___xxtofl
    _intToString->___lwdiv
    ___fltol->___xxtofl
    ___flsub->___xxtofl
    ___flmul->___xxtofl
    ___fldiv->___xxtofl
    _UART_TxString->_UART_TxChar

Critical Paths under _main in BANK0

    _main->_floatToString
    _floatToString->___fltol
    ___fltol->___flmul
    ___flsub->___fladd
    ___flmul->___flsub
    ___fldiv->___flmul

Critical Paths under _main in BANK1

    None.

Critical Paths under _main in BANK3

    None.

Critical Paths under _main in BANK2

    None.

Call Graph Tables:

 ---------------------------------------------------------------------------------
 (Depth) Function   	        Calls       Base Space   Used Autos Params    Refs
 ---------------------------------------------------------------------------------
 (0) _main                                                25    25      0    9409
                                             70 BANK0      3     3      0
                                              0 BANK1     22    22      0
                           _ADC_Init
                           _ADC_Read
                          _UART_Init
                      _UART_TxString
                            ___fldiv
                            ___flmul
                           ___xxtofl
                      _floatToString
                        _intToString
 ---------------------------------------------------------------------------------
 (1) _floatToString                                       20    15      5    5340
                                             52 BANK0     18    13      5
                            ___flmul
                            ___flsub
                            ___fltol
                           ___xxtofl
                        _intToString
 ---------------------------------------------------------------------------------
 (2) _intToString                                         16    13      3     712
                                              7 COMMON     6     3      3
                                              0 BANK0     10    10      0
                            ___lwdiv
                            ___lwmod
 ---------------------------------------------------------------------------------
 (3) ___lwmod                                              5     1      4     161
                                              0 COMMON     5     1      4
 ---------------------------------------------------------------------------------
 (3) ___lwdiv                                              7     3      4     164
                                              0 COMMON     7     3      4
 ---------------------------------------------------------------------------------
 (2) ___xxtofl                                            14    10      4     338
                                              0 COMMON    14    10      4
 ---------------------------------------------------------------------------------
 (2) ___fltol                                             10     6      4     231
                                             42 BANK0     10     6      4
                            ___flmul (ARG)
                            ___flsub (ARG)
                           ___xxtofl (ARG)
 ---------------------------------------------------------------------------------
 (2) ___flsub                                              8     0      8    2035
                                              8 BANK0      8     0      8
                            ___fladd
                           ___xxtofl (ARG)
 ---------------------------------------------------------------------------------
 (3) ___fladd                                             20    12      8    1988
                                              0 COMMON    12     4      8
                                              0 BANK0      8     8      0
 ---------------------------------------------------------------------------------
 (2) ___flmul                                             26    18      8    1610
                                             16 BANK0     26    18      8
                          __Umul8_16
                            ___flsub (ARG)
                           ___xxtofl (ARG)
 ---------------------------------------------------------------------------------
 (3) __Umul8_16                                            9     7      2     139
                                              0 COMMON     9     7      2
 ---------------------------------------------------------------------------------
 (1) ___fldiv                                             26    18      8    1124
                                             42 BANK0     26    18      8
                            ___flmul (ARG)
                           ___xxtofl (ARG)
 ---------------------------------------------------------------------------------
 (1) _UART_TxString                                        2     0      2      80
                                              1 COMMON     2     0      2
                        _UART_TxChar
 ---------------------------------------------------------------------------------
 (2) _UART_TxChar                                          1     1      0      29
                                              0 COMMON     1     1      0
 ---------------------------------------------------------------------------------
 (1) _UART_Init                                            0     0      0       0
 ---------------------------------------------------------------------------------
 (1) _ADC_Read                                             5     3      2      29
                                              0 COMMON     5     3      2
 ---------------------------------------------------------------------------------
 (1) _ADC_Init                                             0     0      0       0
 ---------------------------------------------------------------------------------
 Estimated maximum stack depth 3
 ---------------------------------------------------------------------------------

 Call Graph Graphs:

 _main (ROOT)
   _ADC_Init
   _ADC_Read
   _UART_Init
   _UART_TxString
     _UART_TxChar
   ___fldiv
     ___flmul (ARG)
       __Umul8_16
       ___flsub (ARG)
         ___fladd
         ___xxtofl (ARG)
       ___xxtofl (ARG)
     ___xxtofl (ARG)
   ___flmul
   ___xxtofl
   _floatToString
     ___flmul
     ___flsub
     ___fltol
       ___flmul (ARG)
       ___flsub (ARG)
       ___xxtofl (ARG)
     ___xxtofl
     _intToString
       ___lwdiv
       ___lwmod
   _intToString

Address spaces:
Name               Size   Autos  Total    Usage
BITCOMMON           14      0       0      0.0%
BITBANK0            80      0       0      0.0%
BITBANK1            80      0       0      0.0%
BITBANK3            96      0       0      0.0%
BITBANK2            96      0       0      0.0%
COMMON              14     14      14    100.0%
BANK0               80     73      73     91.2%
BANK1               80     22      22     27.5%
BANK3               96      0       0      0.0%
BANK2               96      0       0      0.0%
STACK                0      0       0      0.0%
DATA                 0      0     109      0.0%


Microchip Technology PIC Macro Assembler V3.10 build 20250813170317 
Symbol Table                                                                                   Thu Oct 30 20:30:57 2025

           ___fldiv@aexp 0063             ___fldiv@bexp 0062                        pc 0002  
           ___fldiv@sign 005B                       l31 0012                       l34 0C1E  
                     l43 0C70                       l52 0C97                       l37 0C26  
                     l46 0C1C                       l56 0093                       l49 0C8D  
                     l68 0E5F                       fsr 0004            _floatToString 0DAF  
    __Umul8_16@word_mpld 0076                      l521 025D                      l505 04AD  
                    l506 04B9                      l442 0D38                      l363 0D99  
                    l603 0E82                      l356 0DAE                      l604 0E93  
                    l452 0CF6                      l541 0249                      l509 0C4A  
                    l605 0F13                      l366 0DAE                      l543 0255  
                    l535 01D7                      l519 00E9                      l463 02BB  
                    l616 0EDD                      l617 0EE9                      l609 0EC1  
                    l458 028A                      l571 07F1                      l467 033A  
                    l580 0CBE                      l484 0406                      l476 04B9  
                    l565 076D                      l469 0313                      l494 044F  
                    l559 07FB                      l488 042C                      l497 048D  
                    l578 0CAC                      fsr0 0004                      indf 0000  
            main@adc_str 00AA             ___flmul@aexp 0042             ___flmul@bexp 0043  
           ___flmul@sign 003D             ___flmul@temp 0048             ___flmul@prod 0044  
           ___fltol@exp1 0053                     l2000 0188                     l2010 01A3  
                   l2002 018A                     l2020 01BB                     l2012 01A7  
                   l2004 0190                     l2030 01DC                     l2022 01BC  
                   l2014 01A8                     l2006 0198                     l2032 01E1  
                   l2040 0212                     l2024 01C0                     l2016 01B1  
                   l2008 019A                     l1400 0CF2                     l2050 0248  
                   l2042 021F                     l2034 01EF                     l2026 01D4  
                   l2018 01B7                     l1410 0268                     l2052 024D  
                   l2044 022D                     l2036 01F3                     l1500 0332  
                   l1420 027F                     l1412 026C                     l1404 025E  
                   l2054 0251                     l2046 023C                     l2038 020C  
                   l1510 034C                     l1502 0334                     l1430 0294  
                   l1422 0280                     l1414 026D                     l1406 0260  
                   l2070 0F31                     l2062 0F14                     l2056 0253  
                   l2048 0240                     l1600 04B8                     l1520 0376  
                   l1512 0363                     l1504 033E                     l1440 02A3  
                   l1432 0295                     l1416 0272                     l1424 0282  
                   l1408 0262                     l1360 0CFF                     l2080 0FC1  
                   l2072 0F35                     l2064 0F19                     l1610 0CB5  
                   l1602 0C99                     l1530 039F                     l1522 037A  
                   l1514 0367                     l1506 0343                     l1450 02C1  
                   l1442 02A8                     l1434 0299                     l1426 028C  
                   l1418 0277                     l1370 0D20                     l1362 0D02  
                   l2090 0FEE                     l2082 0FCA                     l2074 0F41  
                   l2066 0F23                     l1612 0CBA                     l1604 0C9B  
                   l1700 04C9                     l1532 03DF                     l1540 03F8  
                   l1524 037B                     l1516 036B                     l1460 02CD  
                   l1452 02C5                     l1444 02B0                     l1436 029D  
                   l1428 028E                     l1372 0D26                     l1364 0D09  
                   l1356 0CF7                     l1620 0013                     l2084 0FD3  
                   l2076 0F97                     l2068 0F2C                     l1606 0CA2  
                   l1710 04E5                     l1702 04CE                     l1550 0427  
                   l1542 040E                     l1534 03E1                     l1526 0386  
                   l1518 0374                     l1470 02D7                     l1462 02CF  
                   l1454 02C7                     l1446 02B1                     l1438 029E  
                   l1374 0D27                     l1366 0D0B                     l1358 0CF9  
                   l1390 0CD1                     l1382 0CBF                     l1630 0026  
                   l1622 0017                     l2086 0FDC                     l2078 0FA2  
                   l1616 0C1E                     l1608 0CA6                     l1800 0772  
                   l1720 04F6                     l1712 04E8                     l1704 04D3  
                   l1560 043B                     l1552 042B                     l1544 0413  
                   l1536 03E4                     l1528 0389                     l1480 02E1  
                   l1472 02D9                     l1464 02D1                     l1456 02C9  
                   l1448 02B3                     l1376 0D2E                     l1368 0D0F  
                   l1392 0CD5                     l1384 0CC5                     l1640 0060  
                   l1632 003C                     l1624 001D                     l2088 0FE5  
                   l1618 0C24                     l1802 0777                     l1810 07A8  
                   l1730 0512                     l1722 04FB                     l1714 04EC  
                   l1706 04DB                     l1570 044C                     l1554 0430  
                   l1562 043D                     l1538 03E9                     l1490 0317  
                   l1482 02E3                     l1474 02DB                     l1466 02D3  
                   l1458 02CB                     l1650 0D44                     l1378 0D34  
                   l1394 0CDF                     l1386 0CC8                     l1642 0076  
                   l1634 0044                     l1626 0022                     l1820 07DB  
                   l1812 07B5                     l1804 0785                     l1740 053B  
                   l1732 0517                     l1724 0503                     l1716 04F0  
                   l1708 04DD                     l1580 046B                     l1556 0434  
                   l1548 041C                     l1564 0441                     l1492 0320  
                   l1476 02DD                     l1468 02D5                     l1484 02E5  
                   l1660 0D69                     l1396 0CE5                     l1388 0CCF  
                   l1644 007C                     l1636 0055                     l1900 0DC6  
                   l1822 07E7                     l1814 07C0                     l1806 0789  
                   l1750 05D4                     l1742 0556                     l1726 0505  
                   l1718 04F1                     l1590 04A4                     l1582 048B  
                   l1574 0454                     l1566 0442                     l1558 0436  
                   l1494 0322                     l1486 02E6                     l1478 02DF  
                   l1670 0D77                     l1662 0D6B                     l1654 0D4D  
                   l1398 0CEC                     l1646 008A                     l1638 005B  
                   l1910 0E3E                     l1902 0E15                     l1920 0098  
                   l1824 07EB                     l1816 07CF                     l1808 07A2  
                   l1760 0633                     l1752 05DD                     l1744 0572  
                   l1736 0520                     l1728 050D                     l1592 04A5  
                   l1584 0492                     l1576 0459                     l1568 0446  
                   l1496 0326                     l1488 02FD                     l1680 0D9E  
                   l1664 0D6F                     l1672 0D87                     l1656 0D60  
                   l1648 0D39                     l1840 0E8A                     l1832 0E61  
                   l1912 0E45                     l1904 0E21                     l1930 00A8  
                   l1922 009A                     l1826 07EC                     l1818 07D9  
                   l1770 06CB                     l1762 064A                     l1754 05EB  
                   l1746 059C                     l1738 052E                     l1690 04BA  
                   l1594 04A9                     l1586 0497                     l1578 0467  
                   l1498 0327                     l1682 0DA3                     l1658 0D61  
                   l1850 0EAA                     l1834 0E66                     l1914 0E4B  
                   l1906 0E2D                     l1940 00C0                     l1932 00AD  
                   l1924 009E                     l1828 07F3                     l1780 0739  
                   l1772 06F1                     l1764 0667                     l1756 0608  
                   l1748 05B8                     l1692 04BE                     l1596 04AB  
                   l1588 049F                     l1684 0C27                     l1860 0EE1  
                   l1852 0EB8                     l1844 0E96                     l1836 0E6A  
                   l1916 0E59                     l1908 0E33                     l1950 00D1  
                   l1942 00C3                     l1934 00B5                     l1926 00A2  
                   l1918 0094                     l1790 0751                     l1782 073D  
                   l1774 0719                     l1766 0692                     l1758 0616  
                   l1694 04C0                     l1598 04B4                     l1686 0C2B  
                   l1678 0D8E                     l1870 0F0B                     l1862 0EEB  
                   l1854 0EC8                     l1846 0EA1                     l1838 0E7A  
                   l1880 0C5A                     l1960 00F1                     l1952 00D6  
                   l1944 00C7                     l1936 00B6                     l1928 00A3  
                   l1792 0752                     l1784 073E                     l1776 0722  
                   l1768 06A0                     l1696 04C4                     l1864 0F01  
                   l1856 0ED3                     l1848 0EA8                     l1890 0C8A  
                   l1874 0004                     l1882 0C60                     l1970 010D  
                   l1962 00FD                     l1954 00DE                     l1946 00CB  
                   l1938 00B8                     l1794 0756                     l1786 0747  
                   l1778 0730                     l1698 04C8                     l1866 0F06  
                   l1858 0ED7                     l1884 0C14                     l1892 0C91  
                   l1876 0C4B                     l1980 0138                     l1964 00FF  
                   l1956 00DF                     l1948 00CC                     l1796 076A  
                   l1788 074D                     l1868 0F0A                     l1886 0C72  
                   l1878 0C4C                     l1990 015D                     l1982 0140  
                   l1974 0116                     l1958 00E1                     l1888 0C81  
                   l1992 015E                     l1984 0142                     l1976 0128  
                   l1968 0108                     l1896 0DAF                     l1986 0147  
                   l1994 0167                     l1978 0130                     l1898 0DB3  
                   l1996 0179                     l1988 0159                     l1998 017A  
                   STR_1 0810                     STR_2 0833                     STR_3 0822  
                   STR_4 082C                     u2000 03E9                     u2001 03E8  
                   u2010 040E                     u2011 040D                     u2100 0453  
                   u2020 0413                     u2101 0452                     u2021 0412  
                   u2110 0459                     u2111 0458                     u3000 0147  
                   u2200 0CA6                     u2120 046B                     u2040 042B  
                   u3001 0146                     u2201 0CA5                     u2121 046A  
                   u2041 042A                     u2130 047C                     u2050 0430  
                   u2051 042F                     u2035 0420                     u2220 0CBA  
                   u2140 048B                     u2060 043B                     u2300 0D76  
                   u2221 0CB9                     u2141 048A                     u2061 043A  
                   u2301 0D75                     u2230 0C24                     u3110 01BB  
                   u3030 015D                     u2150 0492                     u2070 0441  
                   u2231 0C23                     u3111 01BA                     u3031 015C  
                   u3015 0149                     u2215 0CAD                     u2151 0491  
                   u2135 0477                     u2071 0440                     u3200 0251  
                   u3120 01C0                     u2400 04F0                     u2160 0497  
                   u2080 0446                     u2320 0D86                     u2240 001D  
                   u3201 0250                     u3121 01BF                     u3105 01AA  
                   u3025 0152                     u2401 04EF                     u2161 0496  
                   u2081 0445                     u2321 0D85                     u2241 001C  
                   u3130 01D4                     u3050 0179                     u2410 04F6  
                   u2170 04A4                     u2090 044C                     u2330 0D8D  
                   u1610 0CFF                     u2250 005B                     u3131 01D3  
                   u3051 0178                     u2411 04F5                     u2171 04A3  
                   u2091 044B                     u2331 0D8C                     u2315 0D78  
                   u1611 0CFE                     u2251 005A                     u3140 01DB  
                   u3060 0190                     u2420 04FB                     u2180 04A9  
                   u1700 0CD5                     u2260 008A                     u3141 01DA  
                   u3061 018F                     u3045 0160                     u2501 05FA  
                   u2421 04FA                     u2181 04A8                     u1701 0CD4  
                   u2261 0089                     u3150 01E1                     u3070 0198  
                   u2502 0601                     u2430 0512                     u2190 04B8  
                   u2350 0D9E                     u2270 0D44                     u1630 0D0F  
                   u1710 0CDF                     u3151 01E0                     u3071 0197  
                   u3055 0175                     u2511 0625                     u2503 0608  
                   u2431 0511                     u2191 04B7                     u2351 0D9D  
                   u2271 0D43                     u1631 0D0E                     u1711 0CDE  
                   u3160 01F3                     u2512 062C                     u2440 0517  
                   u1800 02A8                     u2360 0DA3                     u2280 0D5B  
                   u3161 01F2                     u2513 0633                     u2441 0516  
                   u1801 02A7                     u2361 0DA2                     u2345 0D90  
                   u1625 0D03                     u2265 0086                     u3217 0F1F  
                   u3170 0202                     u3090 01A7                     u2370 04C8  
                   u1810 02C1                     u2290 0D6F                     u1650 0D20  
                   u1730 0CF2                     u3091 01A6                     u2531 0659  
                   u2451 0564                     u2371 04C7                     u1811 02C0  
                   u2291 0D6E                     u1651 0D1F                     u1731 0CF1  
                   u1715 0CDB                     u3227 0FF6                     u3180 021F  
                   u2700 0798                     u2620 073D                     u2532 0660  
                   u2452 056B                     u2380 04CE                     u1900 033E  
                   u1820 02C5                     u1740 026C                     u3237 0C85  
                   u3181 021E                     u3085 019C                     u2621 073C  
                   u2605 071B                     u2541 0684                     u2533 0667  
                   u2525 0635                     u2461 0580                     u2453 0572  
                   u2381 04CD                     u1901 033D                     u1821 02C4  
                   u1741 026B                     u2285 0D56                     u1645 0D10  
                   u1725 0CE6                     u3190 023C                     u2710 07B5  
                   u2542 068B                     u2462 0587                     u2390 04D3  
                   u1910 0343                     u1830 02FD                     u1750 0272  
                   u1670 0D34                     u3191 023B                     u3175 01FD  
                   u2711 07B4                     u2615 0732                     u2551 06AF  
                   u2543 0692                     u2471 05AA                     u2463 058E  
                   u2391 04D2                     u1911 0342                     u1831 02FC  
                   u1751 0271                     u1671 0D33                     u1655 0D1C  
                   u2720 07CF                     u2640 0751                     u2560 06D7  
                   u2552 06B6                     u2472 05B1                     u1840 0306  
                   u1760 0277                     u2800 0EC7                     u1680 0CC5  
                   u3185 021B                     u2721 07CE                     u2705 0793  
                   u2641 0750                     u2553 06BD                     u2481 05C6  
                   u2473 05B8                     u1921 0355                     u1841 0304  
                   u1761 0276                     u2801 0EC6                     u1665 0D28  
                   u1681 0CC4                     u2730 07EB                     u2650 0756  
                   u2482 05CD                     u1930 0367                     u1922 035C  
                   u1850 0307                     u1770 0294                     u3195 0238  
                   u2731 07EA                     u2715 07B1                     u2651 0755  
                   u2635 0740                     u2571 06E3                     u2483 05D4  
                   u1931 0366                     u1923 0363                     u1835 02F9  
                   u1771 0293                     u2900 0C91                     u2660 076A  
                   u2580 06FF                     u2572 06EA                     u1940 036B  
                   u1860 0317                     u1780 029D                     u2820 0ED7  
                   u2740 0E66                     u2901 0C90                     u2725 07CB  
                   u2661 0769                     u2573 06F1                     u2565 06D2  
                   u1941 036A                     u1861 0316                     u1781 029C  
                   u2821 0ED6                     u2741 0E65                     u2670 0771  
                   u1950 037A                     u1870 0326                     u1790 02A3  
                   u2830 0EDD                     u2750 0E6A                     u2910 0E3E  
                   u2671 0770                     u2591 070B                     u2495 05D6  
                   u1951 0379                     u1871 0325                     u1791 02A2  
                   u2831 0EDC                     u2815 0ECC                     u2751 0E69  
                   u1695 0CC9                     u2911 0E3D                     u2920 00A2  
                   u2680 0777                     u2592 0712                     u2840 0EE1  
                   u2760 0E8A                     u2921 00A1                     u2681 0776  
                   u2593 0719                     u2585 06FA                     u2841 0EE0  
                   u2761 0E89                     u2930 00A8                     u2690 0789  
                   u1970 039F                     u1890 033A                     u2850 0EF6  
                   u2931 00A7                     u2691 0788                     u1971 039E  
                   u1891 0339                     u2940 00AD                     u2860 0F06  
                   u2780 0EA7                     u2941 00AC                     u1981 03B8  
                   u1973 039B                     u1965 037F                     u1885 032B  
                   u2861 0F05                     u2781 0EA6                     u2950 00CB  
                   u1990 03CC                     u1982 03B9                     u2870 0F0A  
                   u2951 00CA                     u1991 03CD                     u1983 03BE  
                   u2871 0F09                     u2855 0EF1                     u2775 0E99  
                   u2880 0C70                     u2960 00D1                     u1992 03D2  
                   u1984 03BF                     u2881 0C6F                     u2961 00D0  
                   u1993 03D3                     u1985 03C4                     u2970 00D6  
                   u1986 03C5                     u2971 00D5                     u2795 0EB9  
                   u2980 00F1                     u2981 00F0                     u2990 010D  
                   u2895 0C79                     u2991 010C                     _TXIF 0064  
                   _main 0F14                     btemp 007E         __end_of_ADC_Init 0C1D  
       __end_of_ADC_Read 0C98                     start 0000          ___fldiv@new_exp 005C  
           ?_intToString 0077           ?_floatToString 0054            ___fltol@sign1 0052  
        __end_of___fladd 04BA                    ?_main 0070          __end_of___fldiv 025E  
        __end_of___flmul 07FC          __end_of___flsub 0C4B          __end_of___fltol 0DAF  
        __end_of___lwdiv 0D39          __end_of___lwmod 0CF7                    _RCSTA 0018  
                  _SPBRG 0099                    _TRISA 0085                    _TXREG 0019  
                  _TXSTA 0098                    btemp0 007E                    btemp1 007F  
           main@temp_str 00A0                    pclath 000A                    status 0003  
                  wtemp0 007E            main@adc_value 00B4          intToString@temp 0020  
        __initialization 07FC             __end_of_main 1000                   ??_main 0066  
                 _ADCON0 001F                   _ADCON1 009F                   _ADRESH 001E  
                 _ADRESL 009E                   _TRISC6 043E                   _TRISC7 043F  
       __end_of___xxtofl 0F14             ?_UART_TxChar 0070        __end_of_UART_Init 0013  
              ??___fladd 0020          ??_floatToString 0059                ??___fldiv 0052  
              ??___flmul 0038                ??___flsub 007E                ??___fltol 004E  
              ??___lwdiv 0074                ??___lwmod 0074          ADC_Read@channel 0074  
                 ltemp0a 0080                ?_ADC_Init 0070                ?_ADC_Read 0070  
                 ttemp0a 007F                   wtemp0a 007F             ___xxtofl@arg 007A  
           ___xxtofl@exp 0079             ___xxtofl@val 0070  __end_of__initialization 07FC  
             ___fltol@f1 004A    __end_of_UART_TxString 0C71           __pcstackCOMMON 0070  
             ??_ADC_Init 0070               ??_ADC_Read 0072        __end_of__Umul8_16 0CBF  
             __pmaintext 0F14                ?___xxtofl 0070               __stringtab 0800  
           intToString@i 0028             intToString@j 0026                  ___fladd 025E  
                ___fldiv 0094                  ___flmul 04BA                  ___flsub 0C27  
                ___fltol 0D39                  ___lwdiv 0CF7                  ___lwmod 0CBF  
                __ptext1 0DAF                  __ptext2 0013                  __ptext3 0CBF  
                __ptext4 0CF7                  __ptext5 0E60                  __ptext6 0D39  
                __ptext7 0C27                  __ptext8 025E                  __ptext9 04BA  
             ??___xxtofl 0074         floatToString@num 0054         floatToString@str 0058  
   end_of_initialization 07FC                _UART_Init 0004              ___fladd@grs 007B  
          ___xxtofl@sign 0078              ___fldiv@grs 005E              ___fldiv@rem 0057  
            ___flmul@grs 003E    __end_of_floatToString 0E60               ?_UART_Init 0070  
    start_initialization 07FC           intToString@num 0077           intToString@str 0079  
         floatToString@i 0064                __Umul8_16 0C98            ??_intToString 007A  
              ___fladd@a 0074                ___fladd@b 0070                ___fldiv@a 004A  
              ___fldiv@b 004E                ___flmul@a 0034                ___flmul@b 0030  
              ___flsub@a 0028                ___flsub@b 002C                ___latbits 0002  
          __pcstackBANK0 0020            __pcstackBANK1 00A0         ___lwdiv@dividend 0072  
               ?___fladd 0070                 ?___fldiv 004A                 ?___flmul 0030  
               ?___flsub 0028                 ?___fltol 004A               ?__Umul8_16 0070  
               ?___lwdiv 0070                 ?___lwmod 0070              ??_UART_Init 0070  
              __pstrings 0800                 _ADC_Init 0C14                 _ADC_Read 0C71  
    __end_of_intToString 0094         ___lwdiv@quotient 0074            ??_UART_TxChar 0070  
          _UART_TxString 0C4B                 _GO_nDONE 00FA              __stringbase 080F  
         ?_UART_TxString 0071          UART_TxChar@data 0070              ??__Umul8_16 0072  
    __end_of_UART_TxChar 0C27              _intToString 0013       __end_of__stringtab 0810  
 floatToString@frac_part 0060                 ___xxtofl 0E60          ___lwdiv@divisor 0070  
        ___lwdiv@counter 0076                 __ptext10 0C98                 __ptext11 0094  
               __ptext12 0C4B                 __ptext13 0C1D                 __ptext14 0004  
               __ptext15 0C71                 __ptext16 0C14         UART_TxString@str 0071  
      floatToString@temp 005A          main@temperature 00B0         ___lwmod@dividend 0072  
        ??_UART_TxString 0073    floatToString@int_part 0062                stringcode 080A  
            _UART_TxChar 0C1D   __Umul8_16@multiplicand 0070          ___lwmod@divisor 0070  
        ___lwmod@counter 0074                 stringdir 080A                 stringtab 0800  
          ___fladd@signs 0078             ___fladd@aexp 0079             ___fladd@bexp 007A  
   __Umul8_16@multiplier 0078        __Umul8_16@product 0074  
